(dp1
S'output'
p2
S"<type 'exceptions.NameError'> global name 'tp' is not defined"
p3
sS'layer'
p4
S'/home/rohithreddy/Desktop/rohith/web2py/applications/proj/controllers/user.py'
p5
sS'code'
p6
S'# coding: utf8\n# try something like\ndef index():\n    return dict()\n\ndef grid():\n    cont1=dbhome().select(dbhome.pics.ALL)\n    lst={}\n    num={}\n    k=request.args[0]\n    p=0\n    for i in cont1:\n        if i.name==k:\n            lst[p]=i\n            p=p+1\n    num[\'no\']=p\n    return dict(lst=lst,num=num)\n\n\n\ndef download():\n    """\n    allows downloading of uploaded files\n    http://..../[app]/default/download/[filename]\n    """\n    return response.download(request, dbhome)\n\ndef display_form():\n   form = SQLFORM(dbhome.pics,upload=URL(\'download\'))\n   if form.process().accepted:\n       response.flash = \'form accepted\'\n   elif form.errors:\n       response.flash = \'form has errors\'\n   return dict(form=form)\n\n\ndef comments():\n    form=SQLFORM(dbhome.post)\n    l= int(request.args[0])\n    n=1 \n    k=dbhome().select(dbhome.pics.ALL)\n    post=dbhome().select(dbhome.post.ALL)\n    comm={}\n    auth={}\n    print l\n    for i in k:\n        if int(i.id) == l:\n            print i\n            break\n    for p in post:\n        if int(p.imgid)==l:\n            comm[n]=p.body\n            auth[n]=p.author\n            print comm[n]\n            print auth[n]\n            n=n+1\n    sel=dbhome((dbhome.post.imgid)==l and dbhome.post.relimage!=None).select()\n    sel1=dbhome((dbhome.post.imgid)==l).select()\n    #return dict(k=i,form=form,comm=comm,auth=auth,sel=sel)\n    return dict(sel=sel,form=form,k=i,comm=comm,auth=auth,tp=tp)\n\nresponse._vars=response._caller(comments)\n'
p7
sS'snapshot'
p8
(dp9
sS'traceback'
p10
S'Traceback (most recent call last):\n  File "/home/rohithreddy/Desktop/rohith/web2py/gluon/restricted.py", line 220, in restricted\n    exec ccode in environment\n  File "/home/rohithreddy/Desktop/rohith/web2py/applications/proj/controllers/user.py", line 62, in <module>\n  File "/home/rohithreddy/Desktop/rohith/web2py/gluon/globals.py", line 385, in <lambda>\n    self._caller = lambda f: f()\n  File "/home/rohithreddy/Desktop/rohith/web2py/applications/proj/controllers/user.py", line 60, in comments\n    return dict(sel=sel,form=form,k=i,comm=comm,auth=auth,tp=tp)\nNameError: global name \'tp\' is not defined\n'
p11
s.