(dp1
S'output'
p2
S"<type 'exceptions.TypeError'> list indices must be integers, not str"
p3
sS'layer'
p4
S'/home/user/Desktop/web2py/applications/proj/views/user/about.html'
p5
sS'code'
p6
S'response.write(\'<!DOCTYPE html>\\n<html>\\n<link rel="shortcut icon" href="./logo.png">\\n<link rel="stylesheet" type="text/css" href="http://fonts.googleapis.com/css?family=Tangerine|Inconsolata|Droid+Sans">\\n<link rel="stylesheet" type="text/css" href="http://fonts.googleapis.com/css?family=Trade Winds|Inconsolata|Droid+Sans">\\n<link rel="stylesheet" type="text/css" href="http://fonts.googleapis.com/css?family=Marck Script|Inconsolata|Droid+Sans">\\n<style>\\n\\n#menu{\\nbackground-color: #fff;\\nbackground-color: rgba(255,255,255,0.5);\\nmargin-top:0% ;\\npadding:0px\\n\\twidth: 100%;\\nheight: 35px;\\n\\tfont-size: 16px;\\n\\tfont-family: Tahoma, Geneva, sans-serif;\\n\\tfont-family: \\\'Trade Winds\\\', serif;\\n\\tfont-weight: bold;\\n\\ttext-align: center;\\nborder-radius:15px;\\nborder:2px solid #a1a1a1;\\n\\t\\n}\\n#menu ul {\\nheight: auto;\\npadding: 8px 4px;\\nmargin: 0px;\\n}\\n#menu li {\\n\\ndisplay: inline;\\npadding: 40px;\\n}\\n#menu a {\\n\\ttext-decoration: none;\\ncolor: black;\\npadding: 10px 8px 5px 8px;\\nborder-radius:15px;\\n\\n}\\n#menu a:hover {\\n       background-color:#6E6E6E;\\ncolor:white\\n}\\n#container{\\n\\twidth: 60%;\\nmargin: auto;\\npadding: 5px;\\nborder: 1px solid #666;\\nbackground: #E5E4E2;\\n}\\n#p a{\\n\\n\\tfont-family: \\\'Trade Winds\\\', serif;\\ntext-decoration: none;\\ncolor:black ;\\n\\n}\\n#p a:hover\\n{\\npadding:10px ;\\nbackground-color:#6E6E6E ;\\nborder-radius:25px ;\\ncolor:white ;\\n}\\n</style>\\n<style>\\n.page{\\npadding right:50px ;\\npadding left:50px ;\\nwidth 75% ;\\nheight 100%;\\n}\\n.page{\\nborder-top-left-radius:25px;\\nborder-top-right-radius:25px;\\nbackground-color: #fff;\\nbackground-color: rgba(255,255,255,0.5);\\nborder:2px solid #a1a1a1;\\nwidth:60% ;\\n      margin-left:20% ;\\n      margin-right:20% ;\\n      margin-bottom:0% ;\\n}\\n#body{\\nbackground:url(\\\'\', escape=False)\nresponse.write(URL(\'download\',args=f[int(request.args[0])].image))\nresponse.write(\'\\\') no-repeat center center fixed; \\n\\t    -webkit-background-size: cover;\\n\\t    -moz-background-size: cover;\\n\\t    -o-background-size: cover;\\n\\t    background-size: cover; ;                     \\n\\tpadding 0 ;\\n\\tmargin 100% ;\\n\\twidth 100% ;\\n}\\n.pint{\\npadding:0.095em ;\\ncolor:black;\\n      margin-top:0% ;\\nbackground-color: #fff;\\n background-color: rgba(255,255,255,0.5);\\ntext-align:center ;\\n\\nheight:50px ;\\nborder-radius:25px;\\n\\nborder:2px solid #a1a1a1;\\nfont-family: \\\'Tangerine\\\', serif;\\nfont-size:45px ;\\n}\\n    #pic{\\nheight:450px;\\nwidth:250px;\\npadding:10px 10px 10px 10px ;\\n}\\n#pic img{\\nborder:2px solid #a1a1a1;\\nborder-radius:25px; \\n}\\n#about{\\nmargin-top:-57% ;\\nmargin-left:35% ;\\nheight:700px;\\nwidth:63% ;\\nborder:2px solid #a1a1a1;\\nborder-radius:25px; \\n}\\n.footer{\\nmargin-top:90% ;\\n\\ttext-align:center ;\\nbackground-color: #fff;\\nbackground-color: rgba(255,255,255,0.5);\\ncolor:black;\\n\\t   font-size:10px ;\\nheight:20px ;\\nborder-radius:15px;\\n}\\n</style>\\n<title>\\nfotolog\\n</title>\\n<head>\\n<!--link rel="stylesheet" type="text/css" href="fotolog.css"-->\\n</head>\\n<div class="page">\\n<body id="body">\\n</body>\\n<div>\\n<h1 class="pint">fotolog</h1>\\n<p id="p" style="margin-left:80%;color:white;">\\n<a href="fotolog.html"><b>\\n\', escape=False)\nresponse.write(f[request.args[0]].name)\nresponse.write(\'</b></a></p>\\n</div>\\n<div id="menu">\\n<ul>\\n<li><a href="./fotologold.html">Old Journals</a></li>\\n<li><a href="./fotologfriends.html">Users</a></li>\\n<li><a href="./upload1.html">Upload</a></li>\\n</ul>\\n</div>\\n\\n\\n\\n\\n<div id="pic">\\n<!--<img src="./pics/1.jpg" alt="abhilash" width="250px" height="450px"/>-->\\n    \', escape=False)\nresponse.write(IMG(_src=URL(\'download\',args=f[13].image),_alt="",_width=250,_height=450))\nresponse.write(\'\\n</div>\\n<div id="about">\\n<p>Places lived</p>\\n<p>Mahabubnagar <br> Hyderabad</p>\\n\\n<p>Education</p>\\n<p>B.Tech in CSD in IIIT Hyderabad <br>Intermediate from Srichaitanya junior kalasala,D.D.Colony<br>Schooling from Sri chaitanya Techno School,Hayatnagar <br> Schooling from Sri Satya Sai High School</p>\\n\\n<p>Basic Information</p>\\n<p>Gender : Male <br> birthday : May 6 <br> year : 1996 </p>\\n\\n\\n\\n</div>\\n\\n\\n\\n\\n<div class="footer"style=text-align:"center";background:"#32CD32";>\\n<p>\\xc2\\xa9 All material on this site is copyright fotolog and its contributors.</p>\\n</div>\\n</div>\\n\', escape=False)'
p7
sS'snapshot'
p8
(dp9
S'exception'
p10
(dp11
S'__hash__'
p12
S"<method-wrapper '__hash__' of exceptions.TypeError object>"
p13
sS'__setattr__'
p14
S"<method-wrapper '__setattr__' of exceptions.TypeError object>"
p15
sS'__reduce_ex__'
p16
S'<built-in method __reduce_ex__ of exceptions.TypeError object>'
p17
sS'__getslice__'
p18
S"<method-wrapper '__getslice__' of exceptions.TypeError object>"
p19
sS'__getitem__'
p20
S"<method-wrapper '__getitem__' of exceptions.TypeError object>"
p21
sS'__setstate__'
p22
S'<built-in method __setstate__ of exceptions.TypeError object>'
p23
sS'__reduce__'
p24
S'<built-in method __reduce__ of exceptions.TypeError object>'
p25
sS'__str__'
p26
S"<method-wrapper '__str__' of exceptions.TypeError object>"
p27
sS'__format__'
p28
S'<built-in method __format__ of exceptions.TypeError object>'
p29
sS'__getattribute__'
p30
S"<method-wrapper '__getattribute__' of exceptions.TypeError object>"
p31
sS'__class__'
p32
S"<type 'exceptions.TypeError'>"
p33
sS'__unicode__'
p34
S'<built-in method __unicode__ of exceptions.TypeError object>'
p35
sS'__delattr__'
p36
S"<method-wrapper '__delattr__' of exceptions.TypeError object>"
p37
sS'__subclasshook__'
p38
S'<built-in method __subclasshook__ of type object>'
p39
sS'__repr__'
p40
S"<method-wrapper '__repr__' of exceptions.TypeError object>"
p41
sS'args'
p42
S"('list indices must be integers, not str',)"
p43
sS'__dict__'
p44
S'{}'
p45
sS'__sizeof__'
p46
S'<built-in method __sizeof__ of exceptions.TypeError object>'
p47
sS'__doc__'
p48
S"'Inappropriate argument type.'"
p49
sS'__init__'
p50
S"<method-wrapper '__init__' of exceptions.TypeError object>"
p51
sS'__new__'
p52
S'<built-in method __new__ of type object>'
p53
ssS'evalue'
p54
S'list indices must be integers, not str'
p55
sS'request'
p56
cgluon.html
XML_unpickle
p57
(S's`X\x00\x00<div><table><tr><td style="font-weight:bold;vertical-align:top;">ajax</td><td style="vertical-align:top;">:</td><td><div>False</div></td></tr><tr><td style="font-weight:bold;vertical-align:top;">application</td><td style="vertical-align:top;">:</td><td><div>proj</div></td></tr><tr><td style="font-weight:bold;vertical-align:top;">args</td><td style="vertical-align:top;">:</td><td><div><table><tr><td><div>12</div></td></tr></table></div></td></tr><tr><td style="font-weight:bold;vertical-align:top;">cid</td><td style="vertical-align:top;">:</td><td><div>None</div></td></tr><tr><td style="font-weight:bold;vertical-align:top;">client</td><td style="vertical-align:top;">:</td><td><div>127.0.0.1</div></td></tr><tr><td style="font-weight:bold;vertical-align:top;">controller</td><td style="vertical-align:top;">:</td><td><div>user</div></td></tr><tr><td style="font-weight:bold;vertical-align:top;">cookies</td><td style="vertical-align:top;">:</td><td><div><table><tr><td style="font-weight:bold;vertical-align:top;">session_id_admin</td><td style="vertical-align:top;">:</td><td><div>127.0.0.1-7da67bf8-3684-4550-8bb5-dfc79ec23b7f<table><tr><td style="font-weight:bold;vertical-align:top;">comment</td><td style="vertical-align:top;">:</td><td><div></div></td></tr><tr><td style="font-weight:bold;vertical-align:top;">domain</td><td style="vertical-align:top;">:</td><td><div></div></td></tr><tr><td style="font-weight:bold;vertical-align:top;">expires</td><td style="vertical-align:top;">:</td><td><div></div></td></tr><tr><td style="font-weight:bold;vertical-align:top;">httponly</td><td style="vertical-align:top;">:</td><td><div></div></td></tr><tr><td style="font-weight:bold;vertical-align:top;">max-age</td><td style="vertical-align:top;">:</td><td><div></div></td></tr><tr><td style="font-weight:bold;vertical-align:top;">path</td><td style="vertical-align:top;">:</td><td><div></div></td></tr><tr><td style="font-weight:bold;vertical-align:top;">secure</td><td style="vertical-align:top;">:</td><td><div></div></td></tr><tr><td style="font-weight:bold;vertical-align:top;">version</td><td style="vertical-align:top;">:</td><td><div></div></td></tr></table></div></td></tr><tr><td style="font-weight:bold;vertical-align:top;">session_id_proj</td><td style="vertical-align:top;">:</td><td><div>127.0.0.1-b958b649-1a40-49f0-875e-6acc44adb398<table><tr><td style="font-weight:bold;vertical-align:top;">comment</td><td style="vertical-align:top;">:</td><td><div></div></td></tr><tr><td style="font-weight:bold;vertical-align:top;">domain</td><td style="vertical-align:top;">:</td><td><div></div></td></tr><tr><td style="font-weight:bold;vertical-align:top;">expires</td><td style="vertical-align:top;">:</td><td><div></div></td></tr><tr><td style="font-weight:bold;vertical-align:top;">httponly</td><td style="vertical-align:top;">:</td><td><div></div></td></tr><tr><td style="font-weight:bold;vertical-align:top;">max-age</td><td style="vertical-align:top;">:</td><td><div></div></td></tr><tr><td style="font-weight:bold;vertical-align:top;">path</td><td style="vertical-align:top;">:</td><td><div></div></td></tr><tr><td style="font-weight:bold;vertical-align:top;">secure</td><td style="vertical-align:top;">:</td><td><div></div></td></tr><tr><td style="font-weight:bold;vertical-align:top;">version</td><td style="vertical-align:top;">:</td><td><div></div></td></tr></table></div></td></tr><tr><td style="font-weight:bold;vertical-align:top;">session_id_welcome</td><td style="vertical-align:top;">:</td><td><div>127.0.0.1-f182e9e0-9d96-41c4-83c4-4c73c8df566a<table><tr><td style="font-weight:bold;vertical-align:top;">comment</td><td style="vertical-align:top;">:</td><td><div></div></td></tr><tr><td style="font-weight:bold;vertical-align:top;">domain</td><td style="vertical-align:top;">:</td><td><div></div></td></tr><tr><td style="font-weight:bold;vertical-align:top;">expires</td><td style="vertical-align:top;">:</td><td><div></div></td></tr><tr><td style="font-weight:bold;vertical-align:top;">httponly</td><td style="vertical-align:top;">:</td><td><div></div></td></tr><tr><td style="font-weight:bold;vertical-align:top;">max-age</td><td style="vertical-align:top;">:</td><td><div></div></td></tr><tr><td style="font-weight:bold;vertical-align:top;">path</td><td style="vertical-align:top;">:</td><td><div></div></td></tr><tr><td style="font-weight:bold;vertical-align:top;">secure</td><td style="vertical-align:top;">:</td><td><div></div></td></tr><tr><td style="font-weight:bold;vertical-align:top;">version</td><td style="vertical-align:top;">:</td><td><div></div></td></tr></table></div></td></tr></table></div></td></tr><tr><td style="font-weight:bold;vertical-align:top;">env</td><td style="vertical-align:top;">:</td><td><div><table><tr><td style="font-weight:bold;vertical-align:top;">HTTP_ACCEPT</td><td style="vertical-align:top;">:</td><td><div>text/html,application/xhtml+xml,application/xml;q=0.9,*/*;q=0.8</div></td></tr><tr><td style="font-weight:bold;vertical-align:top;">HTTP_ACCEPT_ENCODING</td><td style="vertical-align:top;">:</td><td><div>gzip, deflate</div></td></tr><tr><td style="font-weight:bold;vertical-align:top;">HTTP_ACCEPT_LANGUAGE</td><td style="vertical-align:top;">:</td><td><div>en-US,en;q=0.5</div></td></tr><tr><td style="font-weight:bold;vertical-align:top;">HTTP_CONNECTION</td><td style="vertical-align:top;">:</td><td><div>keep-alive</div></td></tr><tr><td style="font-weight:bold;vertical-align:top;">HTTP_COOKIE</td><td style="vertical-align:top;">:</td><td><div>session_id_welcome=127.0.0.1-f182e9e0-9d96-41c4-83c4-4c73c8df566a; session_id_admin=127.0.0.1-7da67bf8-3684-4550-8bb5-dfc79ec23b7f; session_id_proj=127.0.0.1-b958b649-1a40-49f0-875e-6acc44adb398</div></td></tr><tr><td style="font-weight:bold;vertical-align:top;">HTTP_HOST</td><td style="vertical-align:top;">:</td><td><div>127.0.0.1:8000</div></td></tr><tr><td style="font-weight:bold;vertical-align:top;">HTTP_USER_AGENT</td><td style="vertical-align:top;">:</td><td><div>Mozilla/5.0 (X11; Linux i686; rv:28.0) Gecko/20100101 Firefox/28.0</div></td></tr><tr><td style="font-weight:bold;vertical-align:top;">PATH_INFO</td><td style="vertical-align:top;">:</td><td><div>/proj/user/about/12</div></td></tr><tr><td style="font-weight:bold;vertical-align:top;">QUERY_STRING</td><td style="vertical-align:top;">:</td><td><div></div></td></tr><tr><td style="font-weight:bold;vertical-align:top;">REMOTE_ADDR</td><td style="vertical-align:top;">:</td><td><div>127.0.0.1</div></td></tr><tr><td style="font-weight:bold;vertical-align:top;">REMOTE_PORT</td><td style="vertical-align:top;">:</td><td><div>57173</div></td></tr><tr><td style="font-weight:bold;vertical-align:top;">REQUEST_METHOD</td><td style="vertical-align:top;">:</td><td><div>GET</div></td></tr><tr><td style="font-weight:bold;vertical-align:top;">SCRIPT_NAME</td><td style="vertical-align:top;">:</td><td><div></div></td></tr><tr><td style="font-weight:bold;vertical-align:top;">SERVER_NAME</td><td style="vertical-align:top;">:</td><td><div>CR13103</div></td></tr><tr><td style="font-weight:bold;vertical-align:top;">SERVER_PORT</td><td style="vertical-align:top;">:</td><td><div>8000</div></td></tr><tr><td style="font-weight:bold;vertical-align:top;">SERVER_PROTOCOL</td><td style="vertical-align:top;">:</td><td><div>HTTP/1.1</div></td></tr><tr><td style="font-weight:bold;vertical-align:top;">SERVER_SOFTWARE</td><td style="vertical-align:top;">:</td><td><div>Rocket 1.2.6</div></td></tr><tr><td style="font-weight:bold;vertical-align:top;">app_folders</td><td style="vertical-align:top;">:</td><td><div>set([&#x27;/home/user/Desktop/web2py/applications/welcome/&#x27;, &#x27;/home/user/Desktop/web2py/applications/admin/&#x27;, &#x27;/home/user/Desktop/web2py/applications/proj/&#x27;])</div></td></tr><tr><td style="font-weight:bold;vertical-align:top;">applications_parent</td><td style="vertical-align:top;">:</td><td><div>/home/user/Desktop/web2py</div></td></tr><tr><td style="font-weight:bold;vertical-align:top;">cmd_args</td><td style="vertical-align:top;">:</td><td><div><table></table></div></td></tr><tr><td style="font-weight:bold;vertical-align:top;">cmd_options</td><td style="vertical-align:top;">:</td><td><div>&lt;Values at 0xa49ba8c: {&#x27;verbose&#x27;: False, &#x27;ip&#x27;: &#x27;127.0.0.1&#x27;, &#x27;debuglevel&#x27;: 30, &#x27;with_scheduler&#x27;: False, &#x27;ips&#x27;: [&#x27;::1&#x27;], &#x27;shutdown_timeout&#x27;: 5, &#x27;taskbar&#x27;: False, &#x27;with_coverage&#x27;: False, &#x27;port&#x27;: 8000, &#x27;maxthreads&#x27;: None, &#x27;softcron&#x27;: False, &#x27;server_name&#x27;: &#x27;CR13103&#x27;, &#x27;bpython&#x27;: False, &#x27;nogui&#x27;: False, &#x27;pid_filename&#x27;: &#x27;httpserver.pid&#x27;, &#x27;extcron&#x27;: False, &#x27;runcron&#x27;: False, &#x27;run_system_tests&#x27;: False, &#x27;test&#x27;: None, &#x27;folder&#x27;: &#x27;/home/user/Desktop/web2py&#x27;, &#x27;config&#x27;: &#x27;&#x27;, &#x27;minthreads&#x27;: None, &#x27;shell&#x27;: None, &#x27;run&#x27;: &#x27;&#x27;, &#x27;log_filename&#x27;: &#x27;httpserver.log&#x27;, &#x27;profiler_dir&#x27;: None, &#x27;args&#x27;: [&#x27;&#x27;], &#x27;socket_timeout&#x27;: 5, &#x27;ssl_ca_certificate&#x27;: None, &#x27;scheduler&#x27;: None, &#x27;interfaces&#x27;: None, &#x27;ssl_private_key&#x27;: &#x27;&#x27;, &#x27;scheduler_groups&#x27;: None, &#x27;password&#x27;: &#x27;&lt;ask&gt;&#x27;, &#x27;request_queue_size&#x27;: 5, &#x27;ssl_certificate&#x27;: &#x27;&#x27;, &#x27;cronjob&#x27;: False, &#x27;numthreads&#x27;: None, &#x27;quiet&#x27;: False, &#x27;import_models&#x27;: False, &#x27;timeout&#x27;: 10, &#x27;plain&#x27;: False, &#x27;nobanner&#x27;: False}&gt;</div></td></tr><tr><td style="font-weight:bold;vertical-align:top;">db_sessions</td><td style="vertical-align:top;">:</td><td><div>set([])</div></td></tr><tr><td style="font-weight:bold;vertical-align:top;">debugging</td><td style="vertical-align:top;">:</td><td><div>True</div></td></tr><tr><td style="font-weight:bold;vertical-align:top;">gluon_parent</td><td style="vertical-align:top;">:</td><td><div>/home/user/Desktop/web2py</div></td></tr><tr><td style="font-weight:bold;vertical-align:top;">http_accept</td><td style="vertical-align:top;">:</td><td><div>text/html,application/xhtml+xml,application/xml;q=0.9,*/*;q=0.8</div></td></tr><tr><td style="font-weight:bold;vertical-align:top;">http_accept_encoding</td><td style="vertical-align:top;">:</td><td><div>gzip, deflate</div></td></tr><tr><td style="font-weight:bold;vertical-align:top;">http_accept_language</td><td style="vertical-align:top;">:</td><td><div>en-US,en;q=0.5</div></td></tr><tr><td style="font-weight:bold;vertical-align:top;">http_connection</td><td style="vertical-align:top;">:</td><td><div>keep-alive</div></td></tr><tr><td style="font-weight:bold;vertical-align:top;">http_cookie</td><td style="vertical-align:top;">:</td><td><div>session_id_welcome=127.0.0.1-f182e9e0-9d96-41c4-83c4-4c73c8df566a; session_id_admin=127.0.0.1-7da67bf8-3684-4550-8bb5-dfc79ec23b7f; session_id_proj=127.0.0.1-b958b649-1a40-49f0-875e-6acc44adb398</div></td></tr><tr><td style="font-weight:bold;vertical-align:top;">http_host</td><td style="vertical-align:top;">:</td><td><div>127.0.0.1:8000</div></td></tr><tr><td style="font-weight:bold;vertical-align:top;">http_user_agent</td><td style="vertical-align:top;">:</td><td><div>Mozilla/5.0 (X11; Linux i686; rv:28.0) Gecko/20100101 Firefox/28.0</div></td></tr><tr><td style="font-weight:bold;vertical-align:top;">is_jython</td><td style="vertical-align:top;">:</td><td><div>False</div></td></tr><tr><td style="font-weight:bold;vertical-align:top;">is_pypy</td><td style="vertical-align:top;">:</td><td><div>False</div></td></tr><tr><td style="font-weight:bold;vertical-align:top;">is_source</td><td style="vertical-align:top;">:</td><td><div>True</div></td></tr><tr><td style="font-weight:bold;vertical-align:top;">local_hosts</td><td style="vertical-align:top;">:</td><td><div><table><tr><td><div>10.3.10.115</div></td></tr><tr><td><div>CR13103</div></td></tr><tr><td><div>::ffff:127.0.0.1</div></td></tr><tr><td><div>::1</div></td></tr><tr><td><div>localhost6.localdomain6</div></td></tr><tr><td><div>127.0.0.1</div></td></tr></table></div></td></tr><tr><td style="font-weight:bold;vertical-align:top;">path_info</td><td style="vertical-align:top;">:</td><td><div>/proj/user/about/12</div></td></tr><tr><td style="font-weight:bold;vertical-align:top;">query_string</td><td style="vertical-align:top;">:</td><td><div></div></td></tr><tr><td style="font-weight:bold;vertical-align:top;">remote_addr</td><td style="vertical-align:top;">:</td><td><div>127.0.0.1</div></td></tr><tr><td style="font-weight:bold;vertical-align:top;">remote_port</td><td style="vertical-align:top;">:</td><td><div>57173</div></td></tr><tr><td style="font-weight:bold;vertical-align:top;">request_method</td><td style="vertical-align:top;">:</td><td><div>GET</div></td></tr><tr><td style="font-weight:bold;vertical-align:top;">request_uri</td><td style="vertical-align:top;">:</td><td><div>/proj/user/about/12</div></td></tr><tr><td style="font-weight:bold;vertical-align:top;">script_name</td><td style="vertical-align:top;">:</td><td><div></div></td></tr><tr><td style="font-weight:bold;vertical-align:top;">server_name</td><td style="vertical-align:top;">:</td><td><div>CR13103</div></td></tr><tr><td style="font-weight:bold;vertical-align:top;">server_port</td><td style="vertical-align:top;">:</td><td><div>8000</div></td></tr><tr><td style="font-weight:bold;vertical-align:top;">server_protocol</td><td style="vertical-align:top;">:</td><td><div>HTTP/1.1</div></td></tr><tr><td style="font-weight:bold;vertical-align:top;">server_software</td><td style="vertical-align:top;">:</td><td><div>Rocket 1.2.6</div></td></tr><tr><td style="font-weight:bold;vertical-align:top;">web2py_path</td><td style="vertical-align:top;">:</td><td><div>/home/user/Desktop/web2py</div></td></tr><tr><td style="font-weight:bold;vertical-align:top;">web2py_version</td><td style="vertical-align:top;">:</td><td><div>2.9.5-stable+timestamp.2014.03.16.02.35.39</div></td></tr><tr><td style="font-weight:bold;vertical-align:top;">wsgi.errors</td><td style="vertical-align:top;">:</td><td><div>&lt;open file &#x27;&lt;stderr&gt;&#x27;, mode &#x27;w&#x27; at 0xb76cc0d0&gt;</div></td></tr><tr><td style="font-weight:bold;vertical-align:top;">wsgi.file_wrapper</td><td style="vertical-align:top;">:</td><td><div>&lt;class wsgiref.util.FileWrapper at 0xa458ecc&gt;</div></td></tr><tr><td style="font-weight:bold;vertical-align:top;">wsgi.input</td><td style="vertical-align:top;">:</td><td><div>&lt;socket._fileobject object at 0xaf33422c&gt;</div></td></tr><tr><td style="font-weight:bold;vertical-align:top;">wsgi.multiprocess</td><td style="vertical-align:top;">:</td><td><div>False</div></td></tr><tr><td style="font-weight:bold;vertical-align:top;">wsgi.multithread</td><td style="vertical-align:top;">:</td><td><div>True</div></td></tr><tr><td style="font-weight:bold;vertical-align:top;">wsgi.run_once</td><td style="vertical-align:top;">:</td><td><div>False</div></td></tr><tr><td style="font-weight:bold;vertical-align:top;">wsgi.url_scheme</td><td style="vertical-align:top;">:</td><td><div>http</div></td></tr><tr><td style="font-weight:bold;vertical-align:top;">wsgi.version</td><td style="vertical-align:top;">:</td><td><div><table><tr><td><div>1</div></td></tr><tr><td><div>0</div></td></tr></table></div></td></tr><tr><td style="font-weight:bold;vertical-align:top;">wsgi_errors</td><td style="vertical-align:top;">:</td><td><div>&lt;open file &#x27;&lt;stderr&gt;&#x27;, mode &#x27;w&#x27; at 0xb76cc0d0&gt;</div></td></tr><tr><td style="font-weight:bold;vertical-align:top;">wsgi_file_wrapper</td><td style="vertical-align:top;">:</td><td><div>&lt;class wsgiref.util.FileWrapper at 0xa458ecc&gt;</div></td></tr><tr><td style="font-weight:bold;vertical-align:top;">wsgi_input</td><td style="vertical-align:top;">:</td><td><div>&lt;socket._fileobject object at 0xaf33422c&gt;</div></td></tr><tr><td style="font-weight:bold;vertical-align:top;">wsgi_multiprocess</td><td style="vertical-align:top;">:</td><td><div>False</div></td></tr><tr><td style="font-weight:bold;vertical-align:top;">wsgi_multithread</td><td style="vertical-align:top;">:</td><td><div>True</div></td></tr><tr><td style="font-weight:bold;vertical-align:top;">wsgi_run_once</td><td style="vertical-align:top;">:</td><td><div>False</div></td></tr><tr><td style="font-weight:bold;vertical-align:top;">wsgi_url_scheme</td><td style="vertical-align:top;">:</td><td><div>http</div></td></tr><tr><td style="font-weight:bold;vertical-align:top;">wsgi_version</td><td style="vertical-align:top;">:</td><td><div><table><tr><td><div>1</div></td></tr><tr><td><div>0</div></td></tr></table></div></td></tr></table></div></td></tr><tr><td style="font-weight:bold;vertical-align:top;">extension</td><td style="vertical-align:top;">:</td><td><div>html</div></td></tr><tr><td style="font-weight:bold;vertical-align:top;">folder</td><td style="vertical-align:top;">:</td><td><div>/home/user/Desktop/web2py/applications/proj/</div></td></tr><tr><td style="font-weight:bold;vertical-align:top;">function</td><td style="vertical-align:top;">:</td><td><div>about</div></td></tr><tr><td style="font-weight:bold;vertical-align:top;">global_settings</td><td style="vertical-align:top;">:</td><td><div><table><tr><td style="font-weight:bold;vertical-align:top;">app_folders</td><td style="vertical-align:top;">:</td><td><div>set([&#x27;/home/user/Desktop/web2py/applications/welcome/&#x27;, &#x27;/home/user/Desktop/web2py/applications/admin/&#x27;, &#x27;/home/user/Desktop/web2py/applications/proj/&#x27;])</div></td></tr><tr><td style="font-weight:bold;vertical-align:top;">applications_parent</td><td style="vertical-align:top;">:</td><td><div>/home/user/Desktop/web2py</div></td></tr><tr><td style="font-weight:bold;vertical-align:top;">cmd_args</td><td style="vertical-align:top;">:</td><td><div><table></table></div></td></tr><tr><td style="font-weight:bold;vertical-align:top;">cmd_options</td><td style="vertical-align:top;">:</td><td><div>&lt;Values at 0xa49ba8c: {&#x27;verbose&#x27;: False, &#x27;ip&#x27;: &#x27;127.0.0.1&#x27;, &#x27;debuglevel&#x27;: 30, &#x27;with_scheduler&#x27;: False, &#x27;ips&#x27;: [&#x27;::1&#x27;], &#x27;shutdown_timeout&#x27;: 5, &#x27;taskbar&#x27;: False, &#x27;with_coverage&#x27;: False, &#x27;port&#x27;: 8000, &#x27;maxthreads&#x27;: None, &#x27;softcron&#x27;: False, &#x27;server_name&#x27;: &#x27;CR13103&#x27;, &#x27;bpython&#x27;: False, &#x27;nogui&#x27;: False, &#x27;pid_filename&#x27;: &#x27;httpserver.pid&#x27;, &#x27;extcron&#x27;: False, &#x27;runcron&#x27;: False, &#x27;run_system_tests&#x27;: False, &#x27;test&#x27;: None, &#x27;folder&#x27;: &#x27;/home/user/Desktop/web2py&#x27;, &#x27;config&#x27;: &#x27;&#x27;, &#x27;minthreads&#x27;: None, &#x27;shell&#x27;: None, &#x27;run&#x27;: &#x27;&#x27;, &#x27;log_filename&#x27;: &#x27;httpserver.log&#x27;, &#x27;profiler_dir&#x27;: None, &#x27;args&#x27;: [&#x27;&#x27;], &#x27;socket_timeout&#x27;: 5, &#x27;ssl_ca_certificate&#x27;: None, &#x27;scheduler&#x27;: None, &#x27;interfaces&#x27;: None, &#x27;ssl_private_key&#x27;: &#x27;&#x27;, &#x27;scheduler_groups&#x27;: None, &#x27;password&#x27;: &#x27;&lt;ask&gt;&#x27;, &#x27;request_queue_size&#x27;: 5, &#x27;ssl_certificate&#x27;: &#x27;&#x27;, &#x27;cronjob&#x27;: False, &#x27;numthreads&#x27;: None, &#x27;quiet&#x27;: False, &#x27;import_models&#x27;: False, &#x27;timeout&#x27;: 10, &#x27;plain&#x27;: False, &#x27;nobanner&#x27;: False}&gt;</div></td></tr><tr><td style="font-weight:bold;vertical-align:top;">db_sessions</td><td style="vertical-align:top;">:</td><td><div>set([])</div></td></tr><tr><td style="font-weight:bold;vertical-align:top;">debugging</td><td style="vertical-align:top;">:</td><td><div>True</div></td></tr><tr><td style="font-weight:bold;vertical-align:top;">gluon_parent</td><td style="vertical-align:top;">:</td><td><div>/home/user/Desktop/web2py</div></td></tr><tr><td style="font-weight:bold;vertical-align:top;">is_jython</td><td style="vertical-align:top;">:</td><td><div>False</div></td></tr><tr><td style="font-weight:bold;vertical-align:top;">is_pypy</td><td style="vertical-align:top;">:</td><td><div>False</div></td></tr><tr><td style="font-weight:bold;vertical-align:top;">is_source</td><td style="vertical-align:top;">:</td><td><div>True</div></td></tr><tr><td style="font-weight:bold;vertical-align:top;">local_hosts</td><td style="vertical-align:top;">:</td><td><div><table><tr><td><div>10.3.10.115</div></td></tr><tr><td><div>CR13103</div></td></tr><tr><td><div>::ffff:127.0.0.1</div></td></tr><tr><td><div>::1</div></td></tr><tr><td><div>localhost6.localdomain6</div></td></tr><tr><td><div>127.0.0.1</div></td></tr></table></div></td></tr><tr><td style="font-weight:bold;vertical-align:top;">web2py_version</td><td style="vertical-align:top;">:</td><td><div>2.9.5-stable+timestamp.2014.03.16.02.35.39</div></td></tr></table></div></td></tr><tr><td style="font-weight:bold;vertical-align:top;">is_https</td><td style="vertical-align:top;">:</td><td><div>False</div></td></tr><tr><td style="font-weight:bold;vertical-align:top;">is_local</td><td style="vertical-align:top;">:</td><td><div>True</div></td></tr><tr><td style="font-weight:bold;vertical-align:top;">is_restful</td><td style="vertical-align:top;">:</td><td><div>False</div></td></tr><tr><td style="font-weight:bold;vertical-align:top;">now</td><td style="vertical-align:top;">:</td><td><div>datetime.datetime(2014, 4, 14, 19, 28, 51, 360947)</div></td></tr><tr><td style="font-weight:bold;vertical-align:top;">raw_args</td><td style="vertical-align:top;">:</td><td><div>12</div></td></tr><tr><td style="font-weight:bold;vertical-align:top;">raw_extension</td><td style="vertical-align:top;">:</td><td><div>None</div></td></tr><tr><td style="font-weight:bold;vertical-align:top;">url</td><td style="vertical-align:top;">:</td><td><div>/proj/user/about/12</div></td></tr><tr><td style="font-weight:bold;vertical-align:top;">utcnow</td><td style="vertical-align:top;">:</td><td><div>datetime.datetime(2014, 4, 14, 13, 58, 51, 360973)</div></td></tr><tr><td style="font-weight:bold;vertical-align:top;">uuid</td><td style="vertical-align:top;">:</td><td><div>proj/127.0.0.1.2014-04-14.19-28-51.ac738da9-ff40-4837-8b51-f7ba1fed663c</div></td></tr><tr><td style="font-weight:bold;vertical-align:top;">wsgi</td><td style="vertical-align:top;">:</td><td><div>&lt;gluon.main.LazyWSGI object at 0xaf4badec&gt;</div></td></tr></table></div>'
tRp58
sS'frames'
p59
(lp60
(dp61
S'file'
p62
S'/home/user/Desktop/web2py/gluon/restricted.py'
p63
sS'dump'
p64
(dp65
S'environment'
p66
S"{'A': <class 'gluon.html.A'>, 'ANY_OF': <class 'gluon.validators.ANY_OF'>, 'Auth': <class 'gluon.tools.Auth'>, 'B': <class 'gluon.html.B'>, 'BEAUTIFY': <class 'gluon.html.BEAUTIFY'>, 'BODY': <class 'gluon.html.BODY'>, 'BR': <class 'gluon.html.BR'>, 'BUTTON': <class 'gluon.html.BUTTON'>, 'CAT': <class 'gluon.html.CAT'>, 'CENTER': <class 'gluon.html.CENTER'>, ...}"
p67
sS'ccode'
p68
S'<code object <module> at 0xab1d9f8, file "/home/...applications/proj/views/user/about.html", line 1>'
p69
ssS'lnum'
p70
I220
sS'lines'
p71
(dp72
I224
S'        # do not encapsulate (obfuscate) the original RestrictedError'
p73
sI215
S'    try:'
p74
sI216
S'        if isinstance(code, types.CodeType):'
p75
sI217
S'            ccode = code'
p76
sI218
S'        else:'
p77
sI219
S'            ccode = compile2(code, layer)'
p78
sI220
S'        exec ccode in environment'
p79
sI221
S'    except HTTP:'
p80
sI222
S'        raise'
p81
sI223
S'    except RestrictedError:'
p82
ssS'call'
p83
S'(code=r"response.write(\'<!DOCTYPE html>\\n<html>\\n<link r...ntributors.</p>\\n</div>\\n</div>\\n\', escape=False)", environment={\'A\': <class \'gluon.html.A\'>, \'ANY_OF\': <class \'gluon.validators.ANY_OF\'>, \'Auth\': <class \'gluon.tools.Auth\'>, \'B\': <class \'gluon.html.B\'>, \'BEAUTIFY\': <class \'gluon.html.BEAUTIFY\'>, \'BODY\': <class \'gluon.html.BODY\'>, \'BR\': <class \'gluon.html.BR\'>, \'BUTTON\': <class \'gluon.html.BUTTON\'>, \'CAT\': <class \'gluon.html.CAT\'>, \'CENTER\': <class \'gluon.html.CENTER\'>, ...}, layer=\'/home/user/Desktop/web2py/applications/proj/views/user/about.html\')'
p84
sS'func'
p85
S'restricted'
p86
sa(dp87
g62
S'/home/user/Desktop/web2py/applications/proj/views/user/about.html'
p88
sg64
(dp89
S'href'
p90
S'undefined'
p91
sS'link'
p92
g91
sS'builtintype'
p93
S"<type 'type'>"
p94
sS'rel'
p95
g91
ssg70
I4
sg71
(dp96
I1
S'response.write(\'<!DOCTYPE html>\\n<html>\\n<link rel="shortcut icon" href="./logo.png">\\n<link rel="stylesheet" type="text/css" href="http://fonts.googleapis.com/css?family=Tangerine|Inconsolata|Droid+Sans">\\n<link rel="stylesheet" type="text/css" href="http://fonts.googleapis.com/css?family=Trade Winds|Inconsolata|Droid+Sans">\\n<link rel="stylesheet" type="text/css" href="http://fonts.googleapis.com/css?family=Marck Script|Inconsolata|Droid+Sans">\\n<style>\\n\\n#menu{\\nbackground-color: #fff;\\nbackground-color: rgba(255,255,255,0.5);\\nmargin-top:0% ;\\npadding:0px\\n\\twidth: 100%;\\nheight: 35px;\\n\\tfont-size: 16px;\\n\\tfont-family: Tahoma, Geneva, sans-serif;\\n\\tfont-family: \\\'Trade Winds\\\', serif;\\n\\tfont-weight: bold;\\n\\ttext-align: center;\\nborder-radius:15px;\\nborder:2px solid #a1a1a1;\\n\\t\\n}\\n#menu ul {\\nheight: auto;\\npadding: 8px 4px;\\nmargin: 0px;\\n}\\n#menu li {\\n\\ndisplay: inline;\\npadding: 40px;\\n}\\n#menu a {\\n\\ttext-decoration: none;\\ncolor: black;\\npadding: 10px 8px 5px 8px;\\nborder-radius:15px;\\n\\n}\\n#menu a:hover {\\n       background-color:#6E6E6E;\\ncolor:white\\n}\\n#container{\\n\\twidth: 60%;\\nmargin: auto;\\npadding: 5px;\\nborder: 1px solid #666;\\nbackground: #E5E4E2;\\n}\\n#p a{\\n\\n\\tfont-family: \\\'Trade Winds\\\', serif;\\ntext-decoration: none;\\ncolor:black ;\\n\\n}\\n#p a:hover\\n{\\npadding:10px ;\\nbackground-color:#6E6E6E ;\\nborder-radius:25px ;\\ncolor:white ;\\n}\\n</style>\\n<style>\\n.page{\\npadding right:50px ;\\npadding left:50px ;\\nwidth 75% ;\\nheight 100%;\\n}\\n.page{\\nborder-top-left-radius:25px;\\nborder-top-right-radius:25px;\\nbackground-color: #fff;\\nbackground-color: rgba(255,255,255,0.5);\\nborder:2px solid #a1a1a1;\\nwidth:60% ;\\n      margin-left:20% ;\\n      margin-right:20% ;\\n      margin-bottom:0% ;\\n}\\n#body{\\nbackground:url(\\\'\', escape=False)'
p97
sI2
S"response.write(URL('download',args=f[int(request.args[0])].image))"
p98
sI3
S'response.write(\'\\\') no-repeat center center fixed; \\n\\t    -webkit-background-size: cover;\\n\\t    -moz-background-size: cover;\\n\\t    -o-background-size: cover;\\n\\t    background-size: cover; ;                     \\n\\tpadding 0 ;\\n\\tmargin 100% ;\\n\\twidth 100% ;\\n}\\n.pint{\\npadding:0.095em ;\\ncolor:black;\\n      margin-top:0% ;\\nbackground-color: #fff;\\n background-color: rgba(255,255,255,0.5);\\ntext-align:center ;\\n\\nheight:50px ;\\nborder-radius:25px;\\n\\nborder:2px solid #a1a1a1;\\nfont-family: \\\'Tangerine\\\', serif;\\nfont-size:45px ;\\n}\\n    #pic{\\nheight:450px;\\nwidth:250px;\\npadding:10px 10px 10px 10px ;\\n}\\n#pic img{\\nborder:2px solid #a1a1a1;\\nborder-radius:25px; \\n}\\n#about{\\nmargin-top:-57% ;\\nmargin-left:35% ;\\nheight:700px;\\nwidth:63% ;\\nborder:2px solid #a1a1a1;\\nborder-radius:25px; \\n}\\n.footer{\\nmargin-top:90% ;\\n\\ttext-align:center ;\\nbackground-color: #fff;\\nbackground-color: rgba(255,255,255,0.5);\\ncolor:black;\\n\\t   font-size:10px ;\\nheight:20px ;\\nborder-radius:15px;\\n}\\n</style>\\n<title>\\nfotolog\\n</title>\\n<head>\\n<!--link rel="stylesheet" type="text/css" href="fotolog.css"-->\\n</head>\\n<div class="page">\\n<body id="body">\\n</body>\\n<div>\\n<h1 class="pint">fotolog</h1>\\n<p id="p" style="margin-left:80%;color:white;">\\n<a href="fotolog.html"><b>\\n\', escape=False)'
p99
sI4
S'response.write(f[request.args[0]].name)'
p100
sI5
S'response.write(\'</b></a></p>\\n</div>\\n<div id="menu">\\n<ul>\\n<li><a href="./fotologold.html">Old Journals</a></li>\\n<li><a href="./fotologfriends.html">Users</a></li>\\n<li><a href="./upload1.html">Upload</a></li>\\n</ul>\\n</div>\\n\\n\\n\\n\\n<div id="pic">\\n<!--<img src="./pics/1.jpg" alt="abhilash" width="250px" height="450px"/>-->\\n    \', escape=False)'
p101
sI6
S'response.write(IMG(_src=URL(\'download\',args=f[13].image),_alt="",_width=250,_height=450))'
p102
sI7
S'response.write(\'\\n</div>\\n<div id="about">\\n<p>Places lived</p>\\n<p>Mahabubnagar <br> Hyderabad</p>\\n\\n<p>Education</p>\\n<p>B.Tech in CSD in IIIT Hyderabad <br>Intermediate from Srichaitanya junior kalasala,D.D.Colony<br>Schooling from Sri chaitanya Techno School,Hayatnagar <br> Schooling from Sri Satya Sai High School</p>\\n\\n<p>Basic Information</p>\\n<p>Gender : Male <br> birthday : May 6 <br> year : 1996 </p>\\n\\n\\n\\n</div>\\n\\n\\n\\n\\n<div class="footer"style=text-align:"center";background:"#32CD32";>\\n<p>\\xc2\\xa9 All material on this site is copyright fotolog and its contributors.</p>\\n</div>\\n</div>\\n\', escape=False)'
p103
ssg83
S'()'
p104
sg85
S'<module>'
p105
sa(dp106
g62
S'/home/user/Desktop/web2py/gluon/dal.py'
p107
sg64
(dp108
S'i'
S"'12'"
p109
sS'self'
p110
S'<Rows (16)>'
p111
sS'self.records'
p112
S"[<Row {'viewpics': {'image': 'viewpics.image.bd21...2cc0.69312e6a7067.jpg', 'id': 1L, 'name': 'i1'}}>, <Row {'viewpics': {'image': 'viewpics.image.a4bf...323e.69322e6a7067.jpg', 'id': 2L, 'name': 'i2'}}>, <Row {'viewpics': {'image': 'viewpics.image.a5a0...5664.69332e6a7067.jpg', 'id': 3L, 'name': 'i3'}}>, <Row {'viewpics': {'image': 'viewpics.image.a7bc...3a4e.69342e6a7067.jpg', 'id': 4L, 'name': 'i4'}}>, <Row {'viewpics': {'image': 'viewpics.image.9adf...a6a5.69352e6a7067.jpg', 'id': 5L, 'name': 'i5'}}>, <Row {'viewpics': {'image': 'viewpics.image.be3c...0055.69362e6a7067.jpg', 'id': 6L, 'name': 'i6'}}>, <Row {'viewpics': {'image': 'viewpics.image.842c...5f32.69372e6a7067.jpg', 'id': 7L, 'name': 'i7'}}>, <Row {'viewpics': {'image': 'viewpics.image.8597...644e.69382e6a7067.jpg', 'id': 8L, 'name': 'i8'}}>, <Row {'viewpics': {'image': 'viewpics.image.9bb2...fe73.69392e6a7067.jpg', 'id': 9L, 'name': 'i9'}}>, <Row {'viewpics': {'image': 'viewpics.image.980e...6f676f2e706e67.png', 'id': 10L, 'name': 'logo'}}>, <Row {'viewpics': {'image': 'viewpics.image.a17d...696b652e706e67.png', 'id': 11L, 'name': 'like'}}>, <Row {'viewpics': {'image': 'viewpics.image.abff...b652e706e67.png', 'id': 12L, 'name': 'dislike'}}>, <Row {'viewpics': {'image': 'viewpics.image.af69...6c6f672e6a7067.jpg', 'id': 13L, 'name': 'blog'}}>, <Row {'viewpics': {'image': 'viewpics.image.a4b0...dd8.312e6a7067.jpg', 'id': 14L, 'name': 'abhi'}}>, <Row {'viewpics': {'image': 'viewpics.image.bded...a.332e6a7067.jpg', 'id': 15L, 'name': 'manasa'}}>, <Row {'viewpics': {'image': 'viewpics.image.9bf1...f.322e6a7067.jpg', 'id': 16L, 'name': 'rohith'}}>]"
p113
sS'row'
p114
g91
ssg70
I10807
sg71
(dp115
I10802
S''
sI10803
S'    def __getslice__(self, a, b):'
p116
sI10804
S'        return Rows(self.db,self.records[a:b],self.colnames,compact=self.compact)'
p117
sI10805
S''
sI10806
S'    def __getitem__(self, i):'
p118
sI10807
S'        row = self.records[i]'
p119
sI10808
S'        keys = row.keys()'
p120
sI10809
S"        if self.compact and len(keys) == 1 and keys[0] != '_extra':"
p121
sI10810
S'            return row[row.keys()[0]]'
p122
sI10811
S'        return row'
p123
ssg83
S"(self=<Rows (16)>, i='12')"
p124
sg85
g20
sasS'pyver'
p125
S'Python 2.7: /usr/bin/python (prefix: /usr)'
p126
sS'session'
p127
g57
(S's=\x01\x00\x00<div><table><tr><td style="font-weight:bold;vertical-align:top;">last_orderby</td><td style="vertical-align:top;">:</td><td><div>None</div></td></tr><tr><td style="font-weight:bold;vertical-align:top;">last_query</td><td style="vertical-align:top;">:</td><td><div>dbhome.viewpics.id&gt;0</div></td></tr></table></div>'
tRp128
sS'etype'
p129
S"<type 'exceptions.TypeError'>"
p130
sS'date'
p131
S'Mon Apr 14 19:28:51 2014'
p132
sS'response'
p133
g57
(S's+1\x00\x00<div><table><tr><td style="font-weight:bold;vertical-align:top;">body</td><td style="vertical-align:top;">:</td><td><div>&lt;cStringIO.StringO object at 0xaf72e780&gt;</div></td></tr><tr><td style="font-weight:bold;vertical-align:top;">cookies</td><td style="vertical-align:top;">:</td><td><div><table><tr><td style="font-weight:bold;vertical-align:top;">session_id_proj</td><td style="vertical-align:top;">:</td><td><div>127.0.0.1-b958b649-1a40-49f0-875e-6acc44adb398<table><tr><td style="font-weight:bold;vertical-align:top;">comment</td><td style="vertical-align:top;">:</td><td><div></div></td></tr><tr><td style="font-weight:bold;vertical-align:top;">domain</td><td style="vertical-align:top;">:</td><td><div></div></td></tr><tr><td style="font-weight:bold;vertical-align:top;">expires</td><td style="vertical-align:top;">:</td><td><div></div></td></tr><tr><td style="font-weight:bold;vertical-align:top;">httponly</td><td style="vertical-align:top;">:</td><td><div></div></td></tr><tr><td style="font-weight:bold;vertical-align:top;">max-age</td><td style="vertical-align:top;">:</td><td><div></div></td></tr><tr><td style="font-weight:bold;vertical-align:top;">path</td><td style="vertical-align:top;">:</td><td><div>/</div></td></tr><tr><td style="font-weight:bold;vertical-align:top;">secure</td><td style="vertical-align:top;">:</td><td><div></div></td></tr><tr><td style="font-weight:bold;vertical-align:top;">version</td><td style="vertical-align:top;">:</td><td><div></div></td></tr></table></div></td></tr></table></div></td></tr><tr><td style="font-weight:bold;vertical-align:top;">delimiters</td><td style="vertical-align:top;">:</td><td><div><table><tr><td><div>{{</div></td></tr><tr><td><div>}}</div></td></tr></table></div></td></tr><tr><td style="font-weight:bold;vertical-align:top;">files</td><td style="vertical-align:top;">:</td><td><div><table></table></div></td></tr><tr><td style="font-weight:bold;vertical-align:top;">flash</td><td style="vertical-align:top;">:</td><td><div></div></td></tr><tr><td style="font-weight:bold;vertical-align:top;">generic_patterns</td><td style="vertical-align:top;">:</td><td><div><table><tr><td><div>*</div></td></tr></table></div></td></tr><tr><td style="font-weight:bold;vertical-align:top;">google_analytics_id</td><td style="vertical-align:top;">:</td><td><div>None</div></td></tr><tr><td style="font-weight:bold;vertical-align:top;">headers</td><td style="vertical-align:top;">:</td><td><div><table><tr><td style="font-weight:bold;vertical-align:top;">X-Powered-By</td><td style="vertical-align:top;">:</td><td><div>web2py</div></td></tr></table></div></td></tr><tr><td style="font-weight:bold;vertical-align:top;">logo</td><td style="vertical-align:top;">:</td><td><div><a class="brand" href="http://www.web2py.com/"><b>web<span>2</span>py</b>&trade;&nbsp;</a></div></td></tr><tr><td style="font-weight:bold;vertical-align:top;">menu</td><td style="vertical-align:top;">:</td><td><div><table><tr><td><div><table><tr><td><div>Home</div></td></tr><tr><td><div>False</div></td></tr><tr><td><div>/proj/default/index</div></td></tr><tr><td><div><table></table></div></td></tr></table></div></td></tr><tr><td><div><table><tr><td><div><span class="highlighted">web2py</span></div></td></tr><tr><td><div>False</div></td></tr><tr><td><div>http://web2py.com</div></td></tr><tr><td><div><table><tr><td><div><table><tr><td><div>My Sites</div></td></tr><tr><td><div>False</div></td></tr><tr><td><div>/admin/default/site</div></td></tr></table></div></td></tr><tr><td><div><table><tr><td><div>This App</div></td></tr><tr><td><div>False</div></td></tr><tr><td><div>/admin/default/design/proj</div></td></tr><tr><td><div>[(&lt;lazyT &#x27;Controller&#x27;&gt;, False, &#x27;/admin/default/edit/proj/controllers/user.py&#x27;), (&lt;lazyT &#x27;View&#x27;&gt;, False, &#x27;/admin/default/edit/proj/views/user/about.html&#x27;), (&lt;lazyT &#x27;Layout&#x27;&gt;, False, &#x27;/admin/default/edit/proj/views/layout.html&#x27;), (&lt;lazyT &#x27;Stylesheet&#x27;&gt;, False, &#x27;/admin/default/edit/proj/static/css/web2py.css&#x27;), (&lt;lazyT &#x27;DB Model&#x27;&gt;, False, &#x27;/admin/default/edit/proj/models/db.py&#x27;), (&lt;lazyT &#x27;Menu Model&#x27;&gt;, False, &#x27;/admin/default/edit/proj/models/menu.py&#x27;), (&lt;lazyT &#x27;Database&#x27;&gt;, False, &#x27;/proj/appadmin/index&#x27;), (&lt;lazyT &#x27;Errors&#x27;&gt;, False, &#x27;/admin/default/errors/proj&#x27;), (&lt;lazyT &#x27;About&#x27;&gt;, False, &#x27;/admin/default/about/proj&#x27;)]</div></td></tr></table></div></td></tr><tr><td><div><table><tr><td><div>web2py.com</div></td></tr><tr><td><div>False</div></td></tr><tr><td><div>http://www.web2py.com</div></td></tr><tr><td><div>[(&lt;lazyT &#x27;Download&#x27;&gt;, False, &#x27;http://www.web2py.com/examples/default/download&#x27;), (&lt;lazyT &#x27;Support&#x27;&gt;, False, &#x27;http://www.web2py.com/examples/default/support&#x27;), (&lt;lazyT &#x27;Demo&#x27;&gt;, False, &#x27;http://web2py.com/demo_admin&#x27;), (&lt;lazyT &#x27;Quick Examples&#x27;&gt;, False, &#x27;http://web2py.com/examples/default/examples&#x27;), (&lt;lazyT &#x27;FAQ&#x27;&gt;, False, &#x27;http://web2py.com/AlterEgo&#x27;), (&lt;lazyT &#x27;Videos&#x27;&gt;, False, &#x27;http://www.web2py.com/examples/default/videos/&#x27;), (&lt;lazyT &#x27;Free Applications&#x27;&gt;, False, &#x27;http://web2py.com/appliances&#x27;), (&lt;lazyT &#x27;Plugins&#x27;&gt;, False, &#x27;http://web2py.com/plugins&#x27;), (&lt;lazyT &#x27;Layouts&#x27;&gt;, False, &#x27;http://web2py.com/layouts&#x27;), (&lt;lazyT &#x27;Recipes&#x27;&gt;, False, &#x27;http://web2pyslices.com/&#x27;), (&lt;lazyT &#x27;Semantic&#x27;&gt;, False, &#x27;http://web2py.com/semantic&#x27;)]</div></td></tr></table></div></td></tr><tr><td><div><table><tr><td><div>Documentation</div></td></tr><tr><td><div>False</div></td></tr><tr><td><div>http://www.web2py.com/book</div></td></tr><tr><td><div>[(&lt;lazyT &#x27;Preface&#x27;&gt;, False, &#x27;http://www.web2py.com/book/default/chapter/00&#x27;), (&lt;lazyT &#x27;Introduction&#x27;&gt;, False, &#x27;http://www.web2py.com/book/default/chapter/01&#x27;), (&lt;lazyT &#x27;Python&#x27;&gt;, False, &#x27;http://www.web2py.com/book/default/chapter/02&#x27;), (&lt;lazyT &#x27;Overview&#x27;&gt;, False, &#x27;http://www.web2py.com/book/default/chapter/03&#x27;), (&lt;lazyT &#x27;The Core&#x27;&gt;, False, &#x27;http://www.web2py.com/book/default/chapter/04&#x27;), (&lt;lazyT &#x27;The Views&#x27;&gt;, False, &#x27;http://www.web2py.com/book/default/chapter/05&#x27;), (&lt;lazyT &#x27;Database&#x27;&gt;, False, &#x27;http://www.web2py.com/book/default/chapter/06&#x27;), (&lt;lazyT &#x27;Forms and Validators&#x27;&gt;, False, &#x27;http://www.web2py.com/book/default/chapter/07&#x27;), (&lt;lazyT &#x27;Email and SMS&#x27;&gt;, False, &#x27;http://www.web2py.com/book/default/chapter/08&#x27;), (&lt;lazyT &#x27;Access Control&#x27;&gt;, False, &#x27;http://www.web2py.com/book/default/chapter/09&#x27;), (&lt;lazyT &#x27;Services&#x27;&gt;, False, &#x27;http://www.web2py.com/book/default/chapter/10&#x27;), (&lt;lazyT &#x27;Ajax Recipes&#x27;&gt;, False, &#x27;http://www.web2py.com/book/default/chapter/11&#x27;), (&lt;lazyT &#x27;Components and Plugins&#x27;&gt;, False, &#x27;http://www.web2py.com/book/default/chapter/12&#x27;), (&lt;lazyT &#x27;Deployment Recipes&#x27;&gt;, False, &#x27;http://www.web2py.com/book/default/chapter/13&#x27;), (&lt;lazyT &#x27;Other Recipes&#x27;&gt;, False, &#x27;http://www.web2py.com/book/default/chapter/14&#x27;), (&lt;lazyT &#x27;Buy this book&#x27;&gt;, False, &#x27;http://stores.lulu.com/web2py&#x27;)]</div></td></tr></table></div></td></tr><tr><td><div><table><tr><td><div>Community</div></td></tr><tr><td><div>False</div></td></tr><tr><td><div>None</div></td></tr><tr><td><div>[(&lt;lazyT &#x27;Groups&#x27;&gt;, False, &#x27;http://www.web2py.com/examples/default/usergroups&#x27;), (&lt;lazyT &#x27;Twitter&#x27;&gt;, False, &#x27;http://twitter.com/web2py&#x27;), (&lt;lazyT &#x27;Live Chat&#x27;&gt;, False, &#x27;http://webchat.freenode.net/?channels=web2py&#x27;)]</div></td></tr></table></div></td></tr><tr><td><div><table><tr><td><div>Plugins</div></td></tr><tr><td><div>False</div></td></tr><tr><td><div>None</div></td></tr><tr><td><div>[(&#x27;plugin_wiki&#x27;, False, &#x27;http://web2py.com/examples/default/download&#x27;), (&lt;lazyT &#x27;Other Plugins&#x27;&gt;, False, &#x27;http://web2py.com/plugins&#x27;), (&lt;lazyT &#x27;Layout Plugins&#x27;&gt;, False, &#x27;http://web2py.com/layouts&#x27;)]</div></td></tr></table></div></td></tr></table></div></td></tr></table></div></td></tr></table></div></td></tr><tr><td style="font-weight:bold;vertical-align:top;">meta</td><td style="vertical-align:top;">:</td><td><div><table><tr><td style="font-weight:bold;vertical-align:top;">author</td><td style="vertical-align:top;">:</td><td><div>Your Name &lt;you@example.com&gt;</div></td></tr><tr><td style="font-weight:bold;vertical-align:top;">generator</td><td style="vertical-align:top;">:</td><td><div>Web2py Web Framework</div></td></tr><tr><td style="font-weight:bold;vertical-align:top;">keywords</td><td style="vertical-align:top;">:</td><td><div>web2py, python, framework</div></td></tr></table></div></td></tr><tr><td style="font-weight:bold;vertical-align:top;">models_to_run</td><td style="vertical-align:top;">:</td><td><div><table><tr><td><div>^\\w+\\.py$</div></td></tr><tr><td><div>^user/\\w+\\.py$</div></td></tr><tr><td><div>^user/about/\\w+\\.py$</div></td></tr></table></div></td></tr><tr><td style="font-weight:bold;vertical-align:top;">postprocessing</td><td style="vertical-align:top;">:</td><td><div><table></table></div></td></tr><tr><td style="font-weight:bold;vertical-align:top;">session_client</td><td style="vertical-align:top;">:</td><td><div>127.0.0.1</div></td></tr><tr><td style="font-weight:bold;vertical-align:top;">session_cookie_compression_level</td><td style="vertical-align:top;">:</td><td><div>None</div></td></tr><tr><td style="font-weight:bold;vertical-align:top;">session_cookie_expires</td><td style="vertical-align:top;">:</td><td><div>None</div></td></tr><tr><td style="font-weight:bold;vertical-align:top;">session_cookie_key</td><td style="vertical-align:top;">:</td><td><div>None</div></td></tr><tr><td style="font-weight:bold;vertical-align:top;">session_data_name</td><td style="vertical-align:top;">:</td><td><div>session_data_proj</div></td></tr><tr><td style="font-weight:bold;vertical-align:top;">session_file</td><td style="vertical-align:top;">:</td><td><div>&lt;open file &#x27;/home/user/Desktop/web2py/applications/proj/sessions/127.0.0.1-b958b649-1a40-49f0-875e-6acc44adb398&#x27;, mode &#x27;rb+&#x27; at 0xade79ee8&gt;</div></td></tr><tr><td style="font-weight:bold;vertical-align:top;">session_filename</td><td style="vertical-align:top;">:</td><td><div>/home/user/Desktop/web2py/applications/proj/sessions/127.0.0.1-b958b649-1a40-49f0-875e-6acc44adb398</div></td></tr><tr><td style="font-weight:bold;vertical-align:top;">session_hash</td><td style="vertical-align:top;">:</td><td><div>c4a29f32bd8d37d2c67a58572ee90371</div></td></tr><tr><td style="font-weight:bold;vertical-align:top;">session_id</td><td style="vertical-align:top;">:</td><td><div>127.0.0.1-b958b649-1a40-49f0-875e-6acc44adb398</div></td></tr><tr><td style="font-weight:bold;vertical-align:top;">session_id_name</td><td style="vertical-align:top;">:</td><td><div>session_id_proj</div></td></tr><tr><td style="font-weight:bold;vertical-align:top;">session_locked</td><td style="vertical-align:top;">:</td><td><div>True</div></td></tr><tr><td style="font-weight:bold;vertical-align:top;">session_masterapp</td><td style="vertical-align:top;">:</td><td><div>proj</div></td></tr><tr><td style="font-weight:bold;vertical-align:top;">session_new</td><td style="vertical-align:top;">:</td><td><div>False</div></td></tr><tr><td style="font-weight:bold;vertical-align:top;">session_storage_type</td><td style="vertical-align:top;">:</td><td><div>file</div></td></tr><tr><td style="font-weight:bold;vertical-align:top;">status</td><td style="vertical-align:top;">:</td><td><div>200</div></td></tr><tr><td style="font-weight:bold;vertical-align:top;">subtitle</td><td style="vertical-align:top;">:</td><td><div></div></td></tr><tr><td style="font-weight:bold;vertical-align:top;">title</td><td style="vertical-align:top;">:</td><td><div>Proj</div></td></tr><tr><td style="font-weight:bold;vertical-align:top;">view</td><td style="vertical-align:top;">:</td><td><div>user/about.html</div></td></tr></table></div>'
tRp134
sS'locals'
p135
(dp136
S'i'
S"'12'"
p137
sS'self'
p138
S'<Rows (16)>'
p139
sssS'traceback'
p140
S'Traceback (most recent call last):\n  File "/home/user/Desktop/web2py/gluon/restricted.py", line 220, in restricted\n    exec ccode in environment\n  File "/home/user/Desktop/web2py/applications/proj/views/user/about.html", line 4, in <module>\n    <link rel="stylesheet" type="text/css" href="http://fonts.googleapis.com/css?family=Tangerine|Inconsolata|Droid+Sans">\n  File "/home/user/Desktop/web2py/gluon/dal.py", line 10807, in __getitem__\n    row = self.records[i]\nTypeError: list indices must be integers, not str\n'
p141
s.