(dp1
S'output'
p2
S"<type 'exceptions.IndexError'> list index out of range"
p3
sS'layer'
p4
S'/ug/ug2k13/csd/rohith.reddy/web2py/applications/proj/views/user/comments.html'
p5
sS'code'
p6
S'response.write(\'<html>\\n<head>\\n<style>\\n#container{\\n\\twidth: 60%;\\nmargin: auto;\\npadding: 5px;\\nborder: 1px solid #666;\\nbackground: #E5E4E2;\\n}\\nul.rig{\\nlist-style: none;\\nfont-size: 0px;\\nmargin-left:15% ;\\nmargin-right:10% ;\\n}\\nul.rig li {\\ndisplay: inline-block;\\npadding: 10px;\\nbackground: #fff;\\nborder: 1px solid #ddd;\\n        font-size: 16px;\\n        font-size: 1rem;\\n        vertical-align: top;\\n        box-shadow: 0 0 5px #ddd;\\n        box-sizing: border-box;\\n        -moz-box-sizing: border-box;\\n        -webkit-box-sizing: border-box;\\n}\\nul.rig li img { \\n        max-width: 100%;\\nheight: 200px;\\nwidth:250px ;\\nmargin: 0 0 10px;\\n</style>\\n<meta name="viewport" content="width=device-width, initial-scale=1">\\n<link rel="stylesheet" href="http://code.jquery.com/mobile/1.4.2/jquery.mobile-1.4.2.min.css">\\n<script src="http://code.jquery.com/jquery-1.10.2.min.js"></script>\\n<script src="http://code.jquery.com/mobile/1.4.2/jquery.mobile-1.4.2.min.js"></script>\\n</head>\\n<body>\\n\\n<div data-role="page" id="pageone">\\n<div data-role="header">\\n<h1>FOTOLOG</h1>\\n<div data-role="navbar">\\n<ul>\\n<li><a href="old.html">OLD JOURNALS</a></li>\\n<li><a href="index.html">USERS</a></li>\\n<li><a href="upload1.html">UPLOAD</a></li>\\n</ul>\\n</div>\\n</div>\\n\\n<div data-role="main" class="ui-content">\\n<p>\\n<div id="container">\\n\', escape=False)\nresponse.write(IMG(_src=URL(\'download\',args=k[0].image),_alt=\'Empty\'))\nresponse.write(\'\\n</div>\\n</p>\\n    \', escape=False)\nresponse.write(request.args[0])\nresponse.write(\'\\n    \', escape=False)\nresponse.write(k)\nresponse.write(\'\\n<head>\\n<style>\\ntable,th,td\\n{\\nborder:1px solid black;\\n}\\nth,td\\n{\\npadding:15px;\\n}\\n</style>\\n</head>\\n<table style="width:60%;margin-left:20%" id="todolist"> </table><div id="comment" style="width:60%;margin:auto;padding:5px;">\\n<body>\\n<input type="text" id="new-text" placeholder="comment here or nowhere ;)"/><button id="add">submit</button> </body></div>\\n<head>\\n<script>\\nfunction addListItem(){\\nvar text=$("#new-text").val();\\n$("#todolist").append("<tr><td>"+text+"</td></tr>");\\n}\\n$(function(){\\n$("#add").on("click",addListItem);\\n});\\n</script></head>\\n<div data-role="footer" style="margin-top:40%;">\\n    <h1>\\xc2\\xa9 All material on this site is copyright fotolog and its contributors.</h1>\\n</div>\\n</div> \\n</body>\\n</html>\\n\', escape=False)'
p7
sS'snapshot'
p8
(dp9
S'exception'
p10
(dp11
S'__hash__'
p12
S"<method-wrapper '__hash__' of exceptions.IndexError object>"
p13
sS'__setattr__'
p14
S"<method-wrapper '__setattr__' of exceptions.IndexError object>"
p15
sS'__reduce_ex__'
p16
S'<built-in method __reduce_ex__ of exceptions.IndexError object>'
p17
sS'__getslice__'
p18
S"<method-wrapper '__getslice__' of exceptions.IndexError object>"
p19
sS'__getitem__'
p20
S"<method-wrapper '__getitem__' of exceptions.IndexError object>"
p21
sS'__setstate__'
p22
S'<built-in method __setstate__ of exceptions.IndexError object>'
p23
sS'__reduce__'
p24
S'<built-in method __reduce__ of exceptions.IndexError object>'
p25
sS'__str__'
p26
S"<method-wrapper '__str__' of exceptions.IndexError object>"
p27
sS'__format__'
p28
S'<built-in method __format__ of exceptions.IndexError object>'
p29
sS'__getattribute__'
p30
S"<method-wrapper '__getattribute__' of exceptions.IndexError object>"
p31
sS'__class__'
p32
S"<type 'exceptions.IndexError'>"
p33
sS'__unicode__'
p34
S'<built-in method __unicode__ of exceptions.IndexError object>'
p35
sS'__delattr__'
p36
S"<method-wrapper '__delattr__' of exceptions.IndexError object>"
p37
sS'__subclasshook__'
p38
S'<built-in method __subclasshook__ of type object>'
p39
sS'__repr__'
p40
S"<method-wrapper '__repr__' of exceptions.IndexError object>"
p41
sS'args'
p42
S"('list index out of range',)"
p43
sS'__dict__'
p44
S'{}'
p45
sS'__sizeof__'
p46
S'<built-in method __sizeof__ of exceptions.IndexError object>'
p47
sS'__doc__'
p48
S"'Sequence index out of range.'"
p49
sS'__init__'
p50
S"<method-wrapper '__init__' of exceptions.IndexError object>"
p51
sS'__new__'
p52
S'<built-in method __new__ of type object>'
p53
ssS'evalue'
p54
S'list index out of range'
p55
sS'request'
p56
cgluon.html
XML_unpickle
p57
(S's\x82Z\x00\x00<div><table><tr><td style="font-weight:bold;vertical-align:top;">ajax</td><td style="vertical-align:top;">:</td><td><div>False</div></td></tr><tr><td style="font-weight:bold;vertical-align:top;">application</td><td style="vertical-align:top;">:</td><td><div>proj</div></td></tr><tr><td style="font-weight:bold;vertical-align:top;">args</td><td style="vertical-align:top;">:</td><td><div><table></table></div></td></tr><tr><td style="font-weight:bold;vertical-align:top;">cid</td><td style="vertical-align:top;">:</td><td><div>None</div></td></tr><tr><td style="font-weight:bold;vertical-align:top;">client</td><td style="vertical-align:top;">:</td><td><div>127.0.0.1</div></td></tr><tr><td style="font-weight:bold;vertical-align:top;">controller</td><td style="vertical-align:top;">:</td><td><div>user</div></td></tr><tr><td style="font-weight:bold;vertical-align:top;">cookies</td><td style="vertical-align:top;">:</td><td><div><table><tr><td style="font-weight:bold;vertical-align:top;">session_id_admin</td><td style="vertical-align:top;">:</td><td><div>127.0.0.1-6f343b0a-3ff0-4a6d-a5e2-21a44e459d9d<table><tr><td style="font-weight:bold;vertical-align:top;">comment</td><td style="vertical-align:top;">:</td><td><div></div></td></tr><tr><td style="font-weight:bold;vertical-align:top;">domain</td><td style="vertical-align:top;">:</td><td><div></div></td></tr><tr><td style="font-weight:bold;vertical-align:top;">expires</td><td style="vertical-align:top;">:</td><td><div></div></td></tr><tr><td style="font-weight:bold;vertical-align:top;">httponly</td><td style="vertical-align:top;">:</td><td><div></div></td></tr><tr><td style="font-weight:bold;vertical-align:top;">max-age</td><td style="vertical-align:top;">:</td><td><div></div></td></tr><tr><td style="font-weight:bold;vertical-align:top;">path</td><td style="vertical-align:top;">:</td><td><div></div></td></tr><tr><td style="font-weight:bold;vertical-align:top;">secure</td><td style="vertical-align:top;">:</td><td><div></div></td></tr><tr><td style="font-weight:bold;vertical-align:top;">version</td><td style="vertical-align:top;">:</td><td><div></div></td></tr></table></div></td></tr><tr><td style="font-weight:bold;vertical-align:top;">session_id_proj</td><td style="vertical-align:top;">:</td><td><div>127.0.0.1-d6d99fb4-edbf-45a7-9ebd-21930c4a4af0<table><tr><td style="font-weight:bold;vertical-align:top;">comment</td><td style="vertical-align:top;">:</td><td><div></div></td></tr><tr><td style="font-weight:bold;vertical-align:top;">domain</td><td style="vertical-align:top;">:</td><td><div></div></td></tr><tr><td style="font-weight:bold;vertical-align:top;">expires</td><td style="vertical-align:top;">:</td><td><div></div></td></tr><tr><td style="font-weight:bold;vertical-align:top;">httponly</td><td style="vertical-align:top;">:</td><td><div></div></td></tr><tr><td style="font-weight:bold;vertical-align:top;">max-age</td><td style="vertical-align:top;">:</td><td><div></div></td></tr><tr><td style="font-weight:bold;vertical-align:top;">path</td><td style="vertical-align:top;">:</td><td><div></div></td></tr><tr><td style="font-weight:bold;vertical-align:top;">secure</td><td style="vertical-align:top;">:</td><td><div></div></td></tr><tr><td style="font-weight:bold;vertical-align:top;">version</td><td style="vertical-align:top;">:</td><td><div></div></td></tr></table></div></td></tr><tr><td style="font-weight:bold;vertical-align:top;">session_id_welcome</td><td style="vertical-align:top;">:</td><td><div>127.0.0.1-f62651a1-f283-4623-ade3-289eff35f34d<table><tr><td style="font-weight:bold;vertical-align:top;">comment</td><td style="vertical-align:top;">:</td><td><div></div></td></tr><tr><td style="font-weight:bold;vertical-align:top;">domain</td><td style="vertical-align:top;">:</td><td><div></div></td></tr><tr><td style="font-weight:bold;vertical-align:top;">expires</td><td style="vertical-align:top;">:</td><td><div></div></td></tr><tr><td style="font-weight:bold;vertical-align:top;">httponly</td><td style="vertical-align:top;">:</td><td><div></div></td></tr><tr><td style="font-weight:bold;vertical-align:top;">max-age</td><td style="vertical-align:top;">:</td><td><div></div></td></tr><tr><td style="font-weight:bold;vertical-align:top;">path</td><td style="vertical-align:top;">:</td><td><div></div></td></tr><tr><td style="font-weight:bold;vertical-align:top;">secure</td><td style="vertical-align:top;">:</td><td><div></div></td></tr><tr><td style="font-weight:bold;vertical-align:top;">version</td><td style="vertical-align:top;">:</td><td><div></div></td></tr></table></div></td></tr></table></div></td></tr><tr><td style="font-weight:bold;vertical-align:top;">env</td><td style="vertical-align:top;">:</td><td><div><table><tr><td style="font-weight:bold;vertical-align:top;">HTTP_ACCEPT</td><td style="vertical-align:top;">:</td><td><div>text/html,application/xhtml+xml,application/xml;q=0.9,*/*;q=0.8</div></td></tr><tr><td style="font-weight:bold;vertical-align:top;">HTTP_ACCEPT_ENCODING</td><td style="vertical-align:top;">:</td><td><div>gzip, deflate</div></td></tr><tr><td style="font-weight:bold;vertical-align:top;">HTTP_ACCEPT_LANGUAGE</td><td style="vertical-align:top;">:</td><td><div>en-US,en;q=0.5</div></td></tr><tr><td style="font-weight:bold;vertical-align:top;">HTTP_CONNECTION</td><td style="vertical-align:top;">:</td><td><div>keep-alive</div></td></tr><tr><td style="font-weight:bold;vertical-align:top;">HTTP_COOKIE</td><td style="vertical-align:top;">:</td><td><div>session_id_welcome=127.0.0.1-f62651a1-f283-4623-ade3-289eff35f34d; session_id_admin=127.0.0.1-6f343b0a-3ff0-4a6d-a5e2-21a44e459d9d; session_id_proj=127.0.0.1-d6d99fb4-edbf-45a7-9ebd-21930c4a4af0</div></td></tr><tr><td style="font-weight:bold;vertical-align:top;">HTTP_HOST</td><td style="vertical-align:top;">:</td><td><div>127.0.0.1:8000</div></td></tr><tr><td style="font-weight:bold;vertical-align:top;">HTTP_REFERER</td><td style="vertical-align:top;">:</td><td><div>http://127.0.0.1:8000/admin/default/edit/proj/controllers/user.py?id=controllers__user__py</div></td></tr><tr><td style="font-weight:bold;vertical-align:top;">HTTP_USER_AGENT</td><td style="vertical-align:top;">:</td><td><div>Mozilla/5.0 (X11; Linux i686; rv:28.0) Gecko/20100101 Firefox/28.0</div></td></tr><tr><td style="font-weight:bold;vertical-align:top;">PATH_INFO</td><td style="vertical-align:top;">:</td><td><div>/proj/user/comments</div></td></tr><tr><td style="font-weight:bold;vertical-align:top;">QUERY_STRING</td><td style="vertical-align:top;">:</td><td><div></div></td></tr><tr><td style="font-weight:bold;vertical-align:top;">REMOTE_ADDR</td><td style="vertical-align:top;">:</td><td><div>127.0.0.1</div></td></tr><tr><td style="font-weight:bold;vertical-align:top;">REMOTE_PORT</td><td style="vertical-align:top;">:</td><td><div>51209</div></td></tr><tr><td style="font-weight:bold;vertical-align:top;">REQUEST_METHOD</td><td style="vertical-align:top;">:</td><td><div>GET</div></td></tr><tr><td style="font-weight:bold;vertical-align:top;">SCRIPT_NAME</td><td style="vertical-align:top;">:</td><td><div></div></td></tr><tr><td style="font-weight:bold;vertical-align:top;">SERVER_NAME</td><td style="vertical-align:top;">:</td><td><div>CR130101</div></td></tr><tr><td style="font-weight:bold;vertical-align:top;">SERVER_PORT</td><td style="vertical-align:top;">:</td><td><div>8000</div></td></tr><tr><td style="font-weight:bold;vertical-align:top;">SERVER_PROTOCOL</td><td style="vertical-align:top;">:</td><td><div>HTTP/1.1</div></td></tr><tr><td style="font-weight:bold;vertical-align:top;">SERVER_SOFTWARE</td><td style="vertical-align:top;">:</td><td><div>Rocket 1.2.6</div></td></tr><tr><td style="font-weight:bold;vertical-align:top;">app_folders</td><td style="vertical-align:top;">:</td><td><div>set([&#x27;/ug/ug2k13/csd/rohith.reddy/web2py/applications/admin/&#x27;, &#x27;/ug/ug2k13/csd/rohith.reddy/web2py/applications/proj/&#x27;, &#x27;/ug/ug2k13/csd/rohith.reddy/web2py/applications/welcome/&#x27;])</div></td></tr><tr><td style="font-weight:bold;vertical-align:top;">applications_parent</td><td style="vertical-align:top;">:</td><td><div>/ug/ug2k13/csd/rohith.reddy/web2py</div></td></tr><tr><td style="font-weight:bold;vertical-align:top;">cmd_args</td><td style="vertical-align:top;">:</td><td><div><table></table></div></td></tr><tr><td style="font-weight:bold;vertical-align:top;">cmd_options</td><td style="vertical-align:top;">:</td><td><div>&lt;Values at 0x9f9aa0c: {&#x27;verbose&#x27;: False, &#x27;ip&#x27;: &#x27;127.0.0.1&#x27;, &#x27;debuglevel&#x27;: 30, &#x27;with_scheduler&#x27;: False, &#x27;ips&#x27;: [&#x27;::1&#x27;], &#x27;shutdown_timeout&#x27;: 5, &#x27;taskbar&#x27;: False, &#x27;with_coverage&#x27;: False, &#x27;port&#x27;: 8000, &#x27;maxthreads&#x27;: None, &#x27;softcron&#x27;: False, &#x27;server_name&#x27;: &#x27;CR130101&#x27;, &#x27;bpython&#x27;: False, &#x27;nogui&#x27;: False, &#x27;pid_filename&#x27;: &#x27;httpserver.pid&#x27;, &#x27;extcron&#x27;: False, &#x27;runcron&#x27;: False, &#x27;run_system_tests&#x27;: False, &#x27;test&#x27;: None, &#x27;folder&#x27;: &#x27;/ug/ug2k13/csd/rohith.reddy/web2py&#x27;, &#x27;config&#x27;: &#x27;&#x27;, &#x27;minthreads&#x27;: None, &#x27;shell&#x27;: None, &#x27;run&#x27;: &#x27;&#x27;, &#x27;log_filename&#x27;: &#x27;httpserver.log&#x27;, &#x27;profiler_dir&#x27;: None, &#x27;args&#x27;: [&#x27;&#x27;], &#x27;socket_timeout&#x27;: 5, &#x27;ssl_ca_certificate&#x27;: None, &#x27;scheduler&#x27;: None, &#x27;interfaces&#x27;: None, &#x27;ssl_private_key&#x27;: &#x27;&#x27;, &#x27;scheduler_groups&#x27;: None, &#x27;password&#x27;: &#x27;&lt;ask&gt;&#x27;, &#x27;request_queue_size&#x27;: 5, &#x27;ssl_certificate&#x27;: &#x27;&#x27;, &#x27;cronjob&#x27;: False, &#x27;numthreads&#x27;: None, &#x27;quiet&#x27;: False, &#x27;import_models&#x27;: False, &#x27;timeout&#x27;: 10, &#x27;plain&#x27;: False, &#x27;nobanner&#x27;: False}&gt;</div></td></tr><tr><td style="font-weight:bold;vertical-align:top;">db_sessions</td><td style="vertical-align:top;">:</td><td><div>set([])</div></td></tr><tr><td style="font-weight:bold;vertical-align:top;">debugging</td><td style="vertical-align:top;">:</td><td><div>True</div></td></tr><tr><td style="font-weight:bold;vertical-align:top;">gluon_parent</td><td style="vertical-align:top;">:</td><td><div>/ug/ug2k13/csd/rohith.reddy/web2py</div></td></tr><tr><td style="font-weight:bold;vertical-align:top;">http_accept</td><td style="vertical-align:top;">:</td><td><div>text/html,application/xhtml+xml,application/xml;q=0.9,*/*;q=0.8</div></td></tr><tr><td style="font-weight:bold;vertical-align:top;">http_accept_encoding</td><td style="vertical-align:top;">:</td><td><div>gzip, deflate</div></td></tr><tr><td style="font-weight:bold;vertical-align:top;">http_accept_language</td><td style="vertical-align:top;">:</td><td><div>en-US,en;q=0.5</div></td></tr><tr><td style="font-weight:bold;vertical-align:top;">http_connection</td><td style="vertical-align:top;">:</td><td><div>keep-alive</div></td></tr><tr><td style="font-weight:bold;vertical-align:top;">http_cookie</td><td style="vertical-align:top;">:</td><td><div>session_id_welcome=127.0.0.1-f62651a1-f283-4623-ade3-289eff35f34d; session_id_admin=127.0.0.1-6f343b0a-3ff0-4a6d-a5e2-21a44e459d9d; session_id_proj=127.0.0.1-d6d99fb4-edbf-45a7-9ebd-21930c4a4af0</div></td></tr><tr><td style="font-weight:bold;vertical-align:top;">http_host</td><td style="vertical-align:top;">:</td><td><div>127.0.0.1:8000</div></td></tr><tr><td style="font-weight:bold;vertical-align:top;">http_referer</td><td style="vertical-align:top;">:</td><td><div>http://127.0.0.1:8000/admin/default/edit/proj/controllers/user.py?id=controllers__user__py</div></td></tr><tr><td style="font-weight:bold;vertical-align:top;">http_user_agent</td><td style="vertical-align:top;">:</td><td><div>Mozilla/5.0 (X11; Linux i686; rv:28.0) Gecko/20100101 Firefox/28.0</div></td></tr><tr><td style="font-weight:bold;vertical-align:top;">is_jython</td><td style="vertical-align:top;">:</td><td><div>False</div></td></tr><tr><td style="font-weight:bold;vertical-align:top;">is_pypy</td><td style="vertical-align:top;">:</td><td><div>False</div></td></tr><tr><td style="font-weight:bold;vertical-align:top;">is_source</td><td style="vertical-align:top;">:</td><td><div>True</div></td></tr><tr><td style="font-weight:bold;vertical-align:top;">local_hosts</td><td style="vertical-align:top;">:</td><td><div><table><tr><td><div>10.3.11.48</div></td></tr><tr><td><div>::ffff:127.0.0.1</div></td></tr><tr><td><div>::1</div></td></tr><tr><td><div>CR130101</div></td></tr><tr><td><div>localhost6.localdomain6</div></td></tr><tr><td><div>127.0.0.1</div></td></tr></table></div></td></tr><tr><td style="font-weight:bold;vertical-align:top;">path_info</td><td style="vertical-align:top;">:</td><td><div>/proj/user/comments</div></td></tr><tr><td style="font-weight:bold;vertical-align:top;">query_string</td><td style="vertical-align:top;">:</td><td><div></div></td></tr><tr><td style="font-weight:bold;vertical-align:top;">remote_addr</td><td style="vertical-align:top;">:</td><td><div>127.0.0.1</div></td></tr><tr><td style="font-weight:bold;vertical-align:top;">remote_port</td><td style="vertical-align:top;">:</td><td><div>51209</div></td></tr><tr><td style="font-weight:bold;vertical-align:top;">request_method</td><td style="vertical-align:top;">:</td><td><div>GET</div></td></tr><tr><td style="font-weight:bold;vertical-align:top;">request_uri</td><td style="vertical-align:top;">:</td><td><div>/proj/user/comments</div></td></tr><tr><td style="font-weight:bold;vertical-align:top;">script_name</td><td style="vertical-align:top;">:</td><td><div></div></td></tr><tr><td style="font-weight:bold;vertical-align:top;">server_name</td><td style="vertical-align:top;">:</td><td><div>CR130101</div></td></tr><tr><td style="font-weight:bold;vertical-align:top;">server_port</td><td style="vertical-align:top;">:</td><td><div>8000</div></td></tr><tr><td style="font-weight:bold;vertical-align:top;">server_protocol</td><td style="vertical-align:top;">:</td><td><div>HTTP/1.1</div></td></tr><tr><td style="font-weight:bold;vertical-align:top;">server_software</td><td style="vertical-align:top;">:</td><td><div>Rocket 1.2.6</div></td></tr><tr><td style="font-weight:bold;vertical-align:top;">web2py_path</td><td style="vertical-align:top;">:</td><td><div>/ug/ug2k13/csd/rohith.reddy/web2py</div></td></tr><tr><td style="font-weight:bold;vertical-align:top;">web2py_version</td><td style="vertical-align:top;">:</td><td><div>2.9.5-stable+timestamp.2014.03.16.02.35.39</div></td></tr><tr><td style="font-weight:bold;vertical-align:top;">wsgi.errors</td><td style="vertical-align:top;">:</td><td><div>&lt;open file &#x27;&lt;stderr&gt;&#x27;, mode &#x27;w&#x27; at 0xb76f50d0&gt;</div></td></tr><tr><td style="font-weight:bold;vertical-align:top;">wsgi.file_wrapper</td><td style="vertical-align:top;">:</td><td><div>&lt;class wsgiref.util.FileWrapper at 0x9f56e9c&gt;</div></td></tr><tr><td style="font-weight:bold;vertical-align:top;">wsgi.input</td><td style="vertical-align:top;">:</td><td><div>&lt;socket._fileobject object at 0xae52152c&gt;</div></td></tr><tr><td style="font-weight:bold;vertical-align:top;">wsgi.multiprocess</td><td style="vertical-align:top;">:</td><td><div>False</div></td></tr><tr><td style="font-weight:bold;vertical-align:top;">wsgi.multithread</td><td style="vertical-align:top;">:</td><td><div>True</div></td></tr><tr><td style="font-weight:bold;vertical-align:top;">wsgi.run_once</td><td style="vertical-align:top;">:</td><td><div>False</div></td></tr><tr><td style="font-weight:bold;vertical-align:top;">wsgi.url_scheme</td><td style="vertical-align:top;">:</td><td><div>http</div></td></tr><tr><td style="font-weight:bold;vertical-align:top;">wsgi.version</td><td style="vertical-align:top;">:</td><td><div><table><tr><td><div>1</div></td></tr><tr><td><div>0</div></td></tr></table></div></td></tr><tr><td style="font-weight:bold;vertical-align:top;">wsgi_errors</td><td style="vertical-align:top;">:</td><td><div>&lt;open file &#x27;&lt;stderr&gt;&#x27;, mode &#x27;w&#x27; at 0xb76f50d0&gt;</div></td></tr><tr><td style="font-weight:bold;vertical-align:top;">wsgi_file_wrapper</td><td style="vertical-align:top;">:</td><td><div>&lt;class wsgiref.util.FileWrapper at 0x9f56e9c&gt;</div></td></tr><tr><td style="font-weight:bold;vertical-align:top;">wsgi_input</td><td style="vertical-align:top;">:</td><td><div>&lt;socket._fileobject object at 0xae52152c&gt;</div></td></tr><tr><td style="font-weight:bold;vertical-align:top;">wsgi_multiprocess</td><td style="vertical-align:top;">:</td><td><div>False</div></td></tr><tr><td style="font-weight:bold;vertical-align:top;">wsgi_multithread</td><td style="vertical-align:top;">:</td><td><div>True</div></td></tr><tr><td style="font-weight:bold;vertical-align:top;">wsgi_run_once</td><td style="vertical-align:top;">:</td><td><div>False</div></td></tr><tr><td style="font-weight:bold;vertical-align:top;">wsgi_url_scheme</td><td style="vertical-align:top;">:</td><td><div>http</div></td></tr><tr><td style="font-weight:bold;vertical-align:top;">wsgi_version</td><td style="vertical-align:top;">:</td><td><div><table><tr><td><div>1</div></td></tr><tr><td><div>0</div></td></tr></table></div></td></tr></table></div></td></tr><tr><td style="font-weight:bold;vertical-align:top;">extension</td><td style="vertical-align:top;">:</td><td><div>html</div></td></tr><tr><td style="font-weight:bold;vertical-align:top;">folder</td><td style="vertical-align:top;">:</td><td><div>/ug/ug2k13/csd/rohith.reddy/web2py/applications/proj/</div></td></tr><tr><td style="font-weight:bold;vertical-align:top;">function</td><td style="vertical-align:top;">:</td><td><div>comments</div></td></tr><tr><td style="font-weight:bold;vertical-align:top;">global_settings</td><td style="vertical-align:top;">:</td><td><div><table><tr><td style="font-weight:bold;vertical-align:top;">app_folders</td><td style="vertical-align:top;">:</td><td><div>set([&#x27;/ug/ug2k13/csd/rohith.reddy/web2py/applications/admin/&#x27;, &#x27;/ug/ug2k13/csd/rohith.reddy/web2py/applications/proj/&#x27;, &#x27;/ug/ug2k13/csd/rohith.reddy/web2py/applications/welcome/&#x27;])</div></td></tr><tr><td style="font-weight:bold;vertical-align:top;">applications_parent</td><td style="vertical-align:top;">:</td><td><div>/ug/ug2k13/csd/rohith.reddy/web2py</div></td></tr><tr><td style="font-weight:bold;vertical-align:top;">cmd_args</td><td style="vertical-align:top;">:</td><td><div><table></table></div></td></tr><tr><td style="font-weight:bold;vertical-align:top;">cmd_options</td><td style="vertical-align:top;">:</td><td><div>&lt;Values at 0x9f9aa0c: {&#x27;verbose&#x27;: False, &#x27;ip&#x27;: &#x27;127.0.0.1&#x27;, &#x27;debuglevel&#x27;: 30, &#x27;with_scheduler&#x27;: False, &#x27;ips&#x27;: [&#x27;::1&#x27;], &#x27;shutdown_timeout&#x27;: 5, &#x27;taskbar&#x27;: False, &#x27;with_coverage&#x27;: False, &#x27;port&#x27;: 8000, &#x27;maxthreads&#x27;: None, &#x27;softcron&#x27;: False, &#x27;server_name&#x27;: &#x27;CR130101&#x27;, &#x27;bpython&#x27;: False, &#x27;nogui&#x27;: False, &#x27;pid_filename&#x27;: &#x27;httpserver.pid&#x27;, &#x27;extcron&#x27;: False, &#x27;runcron&#x27;: False, &#x27;run_system_tests&#x27;: False, &#x27;test&#x27;: None, &#x27;folder&#x27;: &#x27;/ug/ug2k13/csd/rohith.reddy/web2py&#x27;, &#x27;config&#x27;: &#x27;&#x27;, &#x27;minthreads&#x27;: None, &#x27;shell&#x27;: None, &#x27;run&#x27;: &#x27;&#x27;, &#x27;log_filename&#x27;: &#x27;httpserver.log&#x27;, &#x27;profiler_dir&#x27;: None, &#x27;args&#x27;: [&#x27;&#x27;], &#x27;socket_timeout&#x27;: 5, &#x27;ssl_ca_certificate&#x27;: None, &#x27;scheduler&#x27;: None, &#x27;interfaces&#x27;: None, &#x27;ssl_private_key&#x27;: &#x27;&#x27;, &#x27;scheduler_groups&#x27;: None, &#x27;password&#x27;: &#x27;&lt;ask&gt;&#x27;, &#x27;request_queue_size&#x27;: 5, &#x27;ssl_certificate&#x27;: &#x27;&#x27;, &#x27;cronjob&#x27;: False, &#x27;numthreads&#x27;: None, &#x27;quiet&#x27;: False, &#x27;import_models&#x27;: False, &#x27;timeout&#x27;: 10, &#x27;plain&#x27;: False, &#x27;nobanner&#x27;: False}&gt;</div></td></tr><tr><td style="font-weight:bold;vertical-align:top;">db_sessions</td><td style="vertical-align:top;">:</td><td><div>set([])</div></td></tr><tr><td style="font-weight:bold;vertical-align:top;">debugging</td><td style="vertical-align:top;">:</td><td><div>True</div></td></tr><tr><td style="font-weight:bold;vertical-align:top;">gluon_parent</td><td style="vertical-align:top;">:</td><td><div>/ug/ug2k13/csd/rohith.reddy/web2py</div></td></tr><tr><td style="font-weight:bold;vertical-align:top;">is_jython</td><td style="vertical-align:top;">:</td><td><div>False</div></td></tr><tr><td style="font-weight:bold;vertical-align:top;">is_pypy</td><td style="vertical-align:top;">:</td><td><div>False</div></td></tr><tr><td style="font-weight:bold;vertical-align:top;">is_source</td><td style="vertical-align:top;">:</td><td><div>True</div></td></tr><tr><td style="font-weight:bold;vertical-align:top;">local_hosts</td><td style="vertical-align:top;">:</td><td><div><table><tr><td><div>10.3.11.48</div></td></tr><tr><td><div>::ffff:127.0.0.1</div></td></tr><tr><td><div>::1</div></td></tr><tr><td><div>CR130101</div></td></tr><tr><td><div>localhost6.localdomain6</div></td></tr><tr><td><div>127.0.0.1</div></td></tr></table></div></td></tr><tr><td style="font-weight:bold;vertical-align:top;">web2py_version</td><td style="vertical-align:top;">:</td><td><div>2.9.5-stable+timestamp.2014.03.16.02.35.39</div></td></tr></table></div></td></tr><tr><td style="font-weight:bold;vertical-align:top;">is_https</td><td style="vertical-align:top;">:</td><td><div>False</div></td></tr><tr><td style="font-weight:bold;vertical-align:top;">is_local</td><td style="vertical-align:top;">:</td><td><div>True</div></td></tr><tr><td style="font-weight:bold;vertical-align:top;">is_restful</td><td style="vertical-align:top;">:</td><td><div>False</div></td></tr><tr><td style="font-weight:bold;vertical-align:top;">now</td><td style="vertical-align:top;">:</td><td><div>datetime.datetime(2014, 3, 25, 21, 49, 16, 468030)</div></td></tr><tr><td style="font-weight:bold;vertical-align:top;">raw_args</td><td style="vertical-align:top;">:</td><td><div></div></td></tr><tr><td style="font-weight:bold;vertical-align:top;">raw_extension</td><td style="vertical-align:top;">:</td><td><div>None</div></td></tr><tr><td style="font-weight:bold;vertical-align:top;">url</td><td style="vertical-align:top;">:</td><td><div>/proj/user/comments</div></td></tr><tr><td style="font-weight:bold;vertical-align:top;">utcnow</td><td style="vertical-align:top;">:</td><td><div>datetime.datetime(2014, 3, 25, 16, 19, 16, 468055)</div></td></tr><tr><td style="font-weight:bold;vertical-align:top;">uuid</td><td style="vertical-align:top;">:</td><td><div>proj/127.0.0.1.2014-03-25.21-49-16.01cd6873-1bb7-4f5f-8cfb-84b2df588e77</div></td></tr><tr><td style="font-weight:bold;vertical-align:top;">wsgi</td><td style="vertical-align:top;">:</td><td><div>&lt;gluon.main.LazyWSGI object at 0xaec7292c&gt;</div></td></tr></table></div>'
tRp58
sS'frames'
p59
(lp60
(dp61
S'file'
p62
S'/ug/ug2k13/csd/rohith.reddy/web2py/gluon/restricted.py'
p63
sS'dump'
p64
(dp65
S'environment'
p66
S"{'A': <class 'gluon.html.A'>, 'ANY_OF': <class 'gluon.validators.ANY_OF'>, 'Auth': <class 'gluon.tools.Auth'>, 'B': <class 'gluon.html.B'>, 'BEAUTIFY': <class 'gluon.html.BEAUTIFY'>, 'BODY': <class 'gluon.html.BODY'>, 'BR': <class 'gluon.html.BR'>, 'BUTTON': <class 'gluon.html.BUTTON'>, 'CAT': <class 'gluon.html.CAT'>, 'CENTER': <class 'gluon.html.CENTER'>, ...}"
p67
sS'ccode'
p68
S'<code object <module> at 0xaee9e578, file "/ug/u...lications/proj/views/user/comments.html", line 1>'
p69
ssS'lnum'
p70
I220
sS'lines'
p71
(dp72
I224
S'        # do not encapsulate (obfuscate) the original RestrictedError'
p73
sI215
S'    try:'
p74
sI216
S'        if isinstance(code, types.CodeType):'
p75
sI217
S'            ccode = code'
p76
sI218
S'        else:'
p77
sI219
S'            ccode = compile2(code, layer)'
p78
sI220
S'        exec ccode in environment'
p79
sI221
S'    except HTTP:'
p80
sI222
S'        raise'
p81
sI223
S'    except RestrictedError:'
p82
ssS'call'
p83
S'(code=r"response.write(\'<html>\\n<head>\\n<style>\\n#contai...div>\\n</div> \\n</body>\\n</html>\\n\', escape=False)", environment={\'A\': <class \'gluon.html.A\'>, \'ANY_OF\': <class \'gluon.validators.ANY_OF\'>, \'Auth\': <class \'gluon.tools.Auth\'>, \'B\': <class \'gluon.html.B\'>, \'BEAUTIFY\': <class \'gluon.html.BEAUTIFY\'>, \'BODY\': <class \'gluon.html.BODY\'>, \'BR\': <class \'gluon.html.BR\'>, \'BUTTON\': <class \'gluon.html.BUTTON\'>, \'CAT\': <class \'gluon.html.CAT\'>, \'CENTER\': <class \'gluon.html.CENTER\'>, ...}, layer=\'/ug/ug2k13/csd/rohith.reddy/web2py/applications/proj/views/user/comments.html\')'
p84
sS'func'
p85
S'restricted'
p86
sa(dp87
g62
S'/ug/ug2k13/csd/rohith.reddy/web2py/applications/proj/views/user/comments.html'
p88
sg64
(dp89
S'width'
p90
S'undefined'
p91
ssg70
I4
sg71
(dp92
I1
S'response.write(\'<html>\\n<head>\\n<style>\\n#container{\\n\\twidth: 60%;\\nmargin: auto;\\npadding: 5px;\\nborder: 1px solid #666;\\nbackground: #E5E4E2;\\n}\\nul.rig{\\nlist-style: none;\\nfont-size: 0px;\\nmargin-left:15% ;\\nmargin-right:10% ;\\n}\\nul.rig li {\\ndisplay: inline-block;\\npadding: 10px;\\nbackground: #fff;\\nborder: 1px solid #ddd;\\n        font-size: 16px;\\n        font-size: 1rem;\\n        vertical-align: top;\\n        box-shadow: 0 0 5px #ddd;\\n        box-sizing: border-box;\\n        -moz-box-sizing: border-box;\\n        -webkit-box-sizing: border-box;\\n}\\nul.rig li img { \\n        max-width: 100%;\\nheight: 200px;\\nwidth:250px ;\\nmargin: 0 0 10px;\\n</style>\\n<meta name="viewport" content="width=device-width, initial-scale=1">\\n<link rel="stylesheet" href="http://code.jquery.com/mobile/1.4.2/jquery.mobile-1.4.2.min.css">\\n<script src="http://code.jquery.com/jquery-1.10.2.min.js"></script>\\n<script src="http://code.jquery.com/mobile/1.4.2/jquery.mobile-1.4.2.min.js"></script>\\n</head>\\n<body>\\n\\n<div data-role="page" id="pageone">\\n<div data-role="header">\\n<h1>FOTOLOG</h1>\\n<div data-role="navbar">\\n<ul>\\n<li><a href="old.html">OLD JOURNALS</a></li>\\n<li><a href="index.html">USERS</a></li>\\n<li><a href="upload1.html">UPLOAD</a></li>\\n</ul>\\n</div>\\n</div>\\n\\n<div data-role="main" class="ui-content">\\n<p>\\n<div id="container">\\n\', escape=False)'
p93
sI2
S"response.write(IMG(_src=URL('download',args=k[0].image),_alt='Empty'))"
p94
sI3
S"response.write('\\n</div>\\n</p>\\n    ', escape=False)"
p95
sI4
S'response.write(request.args[0])'
p96
sI5
S"response.write('\\n    ', escape=False)"
p97
sI6
S'response.write(k)'
p98
sI7
S'response.write(\'\\n<head>\\n<style>\\ntable,th,td\\n{\\nborder:1px solid black;\\n}\\nth,td\\n{\\npadding:15px;\\n}\\n</style>\\n</head>\\n<table style="width:60%;margin-left:20%" id="todolist"> </table><div id="comment" style="width:60%;margin:auto;padding:5px;">\\n<body>\\n<input type="text" id="new-text" placeholder="comment here or nowhere ;)"/><button id="add">submit</button> </body></div>\\n<head>\\n<script>\\nfunction addListItem(){\\nvar text=$("#new-text").val();\\n$("#todolist").append("<tr><td>"+text+"</td></tr>");\\n}\\n$(function(){\\n$("#add").on("click",addListItem);\\n});\\n</script></head>\\n<div data-role="footer" style="margin-top:40%;">\\n    <h1>\\xc2\\xa9 All material on this site is copyright fotolog and its contributors.</h1>\\n</div>\\n</div> \\n</body>\\n</html>\\n\', escape=False)'
p99
ssg83
S'()'
p100
sg85
S'<module>'
p101
sasS'pyver'
p102
S'Python 2.7: /usr/bin/python (prefix: /usr)'
p103
sS'session'
p104
g57
(S's\xbb\x01\x00\x00<div><table><tr><td style="font-weight:bold;vertical-align:top;">flash</td><td style="vertical-align:top;">:</td><td><div>None</div></td></tr><tr><td style="font-weight:bold;vertical-align:top;">last_orderby</td><td style="vertical-align:top;">:</td><td><div>None</div></td></tr><tr><td style="font-weight:bold;vertical-align:top;">last_query</td><td style="vertical-align:top;">:</td><td><div>dbhome.pics.id&gt;0</div></td></tr></table></div>'
tRp105
sS'etype'
p106
S"<type 'exceptions.IndexError'>"
p107
sS'date'
p108
S'Tue Mar 25 21:49:16 2014'
p109
sS'response'
p110
g57
(S'sF1\x00\x00<div><table><tr><td style="font-weight:bold;vertical-align:top;">body</td><td style="vertical-align:top;">:</td><td><div>&lt;cStringIO.StringO object at 0xaed56100&gt;</div></td></tr><tr><td style="font-weight:bold;vertical-align:top;">cookies</td><td style="vertical-align:top;">:</td><td><div><table><tr><td style="font-weight:bold;vertical-align:top;">session_id_proj</td><td style="vertical-align:top;">:</td><td><div>127.0.0.1-d6d99fb4-edbf-45a7-9ebd-21930c4a4af0<table><tr><td style="font-weight:bold;vertical-align:top;">comment</td><td style="vertical-align:top;">:</td><td><div></div></td></tr><tr><td style="font-weight:bold;vertical-align:top;">domain</td><td style="vertical-align:top;">:</td><td><div></div></td></tr><tr><td style="font-weight:bold;vertical-align:top;">expires</td><td style="vertical-align:top;">:</td><td><div></div></td></tr><tr><td style="font-weight:bold;vertical-align:top;">httponly</td><td style="vertical-align:top;">:</td><td><div></div></td></tr><tr><td style="font-weight:bold;vertical-align:top;">max-age</td><td style="vertical-align:top;">:</td><td><div></div></td></tr><tr><td style="font-weight:bold;vertical-align:top;">path</td><td style="vertical-align:top;">:</td><td><div>/</div></td></tr><tr><td style="font-weight:bold;vertical-align:top;">secure</td><td style="vertical-align:top;">:</td><td><div></div></td></tr><tr><td style="font-weight:bold;vertical-align:top;">version</td><td style="vertical-align:top;">:</td><td><div></div></td></tr></table></div></td></tr></table></div></td></tr><tr><td style="font-weight:bold;vertical-align:top;">delimiters</td><td style="vertical-align:top;">:</td><td><div><table><tr><td><div>{{</div></td></tr><tr><td><div>}}</div></td></tr></table></div></td></tr><tr><td style="font-weight:bold;vertical-align:top;">files</td><td style="vertical-align:top;">:</td><td><div><table></table></div></td></tr><tr><td style="font-weight:bold;vertical-align:top;">flash</td><td style="vertical-align:top;">:</td><td><div></div></td></tr><tr><td style="font-weight:bold;vertical-align:top;">generic_patterns</td><td style="vertical-align:top;">:</td><td><div><table><tr><td><div>*</div></td></tr></table></div></td></tr><tr><td style="font-weight:bold;vertical-align:top;">google_analytics_id</td><td style="vertical-align:top;">:</td><td><div>None</div></td></tr><tr><td style="font-weight:bold;vertical-align:top;">headers</td><td style="vertical-align:top;">:</td><td><div><table><tr><td style="font-weight:bold;vertical-align:top;">X-Powered-By</td><td style="vertical-align:top;">:</td><td><div>web2py</div></td></tr></table></div></td></tr><tr><td style="font-weight:bold;vertical-align:top;">logo</td><td style="vertical-align:top;">:</td><td><div><a class="brand" href="http://www.web2py.com/"><b>web<span>2</span>py</b>&trade;&nbsp;</a></div></td></tr><tr><td style="font-weight:bold;vertical-align:top;">menu</td><td style="vertical-align:top;">:</td><td><div><table><tr><td><div><table><tr><td><div>Home</div></td></tr><tr><td><div>False</div></td></tr><tr><td><div>/proj/default/index</div></td></tr><tr><td><div><table></table></div></td></tr></table></div></td></tr><tr><td><div><table><tr><td><div><span class="highlighted">web2py</span></div></td></tr><tr><td><div>False</div></td></tr><tr><td><div>http://web2py.com</div></td></tr><tr><td><div><table><tr><td><div><table><tr><td><div>My Sites</div></td></tr><tr><td><div>False</div></td></tr><tr><td><div>/admin/default/site</div></td></tr></table></div></td></tr><tr><td><div><table><tr><td><div>This App</div></td></tr><tr><td><div>False</div></td></tr><tr><td><div>/admin/default/design/proj</div></td></tr><tr><td><div>[(&lt;lazyT &#x27;Controller&#x27;&gt;, False, &#x27;/admin/default/edit/proj/controllers/user.py&#x27;), (&lt;lazyT &#x27;View&#x27;&gt;, False, &#x27;/admin/default/edit/proj/views/user/comments.html&#x27;), (&lt;lazyT &#x27;Layout&#x27;&gt;, False, &#x27;/admin/default/edit/proj/views/layout.html&#x27;), (&lt;lazyT &#x27;Stylesheet&#x27;&gt;, False, &#x27;/admin/default/edit/proj/static/css/web2py.css&#x27;), (&lt;lazyT &#x27;DB Model&#x27;&gt;, False, &#x27;/admin/default/edit/proj/models/db.py&#x27;), (&lt;lazyT &#x27;Menu Model&#x27;&gt;, False, &#x27;/admin/default/edit/proj/models/menu.py&#x27;), (&lt;lazyT &#x27;Database&#x27;&gt;, False, &#x27;/proj/appadmin/index&#x27;), (&lt;lazyT &#x27;Errors&#x27;&gt;, False, &#x27;/admin/default/errors/proj&#x27;), (&lt;lazyT &#x27;About&#x27;&gt;, False, &#x27;/admin/default/about/proj&#x27;)]</div></td></tr></table></div></td></tr><tr><td><div><table><tr><td><div>web2py.com</div></td></tr><tr><td><div>False</div></td></tr><tr><td><div>http://www.web2py.com</div></td></tr><tr><td><div>[(&lt;lazyT &#x27;Download&#x27;&gt;, False, &#x27;http://www.web2py.com/examples/default/download&#x27;), (&lt;lazyT &#x27;Support&#x27;&gt;, False, &#x27;http://www.web2py.com/examples/default/support&#x27;), (&lt;lazyT &#x27;Demo&#x27;&gt;, False, &#x27;http://web2py.com/demo_admin&#x27;), (&lt;lazyT &#x27;Quick Examples&#x27;&gt;, False, &#x27;http://web2py.com/examples/default/examples&#x27;), (&lt;lazyT &#x27;FAQ&#x27;&gt;, False, &#x27;http://web2py.com/AlterEgo&#x27;), (&lt;lazyT &#x27;Videos&#x27;&gt;, False, &#x27;http://www.web2py.com/examples/default/videos/&#x27;), (&lt;lazyT &#x27;Free Applications&#x27;&gt;, False, &#x27;http://web2py.com/appliances&#x27;), (&lt;lazyT &#x27;Plugins&#x27;&gt;, False, &#x27;http://web2py.com/plugins&#x27;), (&lt;lazyT &#x27;Layouts&#x27;&gt;, False, &#x27;http://web2py.com/layouts&#x27;), (&lt;lazyT &#x27;Recipes&#x27;&gt;, False, &#x27;http://web2pyslices.com/&#x27;), (&lt;lazyT &#x27;Semantic&#x27;&gt;, False, &#x27;http://web2py.com/semantic&#x27;)]</div></td></tr></table></div></td></tr><tr><td><div><table><tr><td><div>Documentation</div></td></tr><tr><td><div>False</div></td></tr><tr><td><div>http://www.web2py.com/book</div></td></tr><tr><td><div>[(&lt;lazyT &#x27;Preface&#x27;&gt;, False, &#x27;http://www.web2py.com/book/default/chapter/00&#x27;), (&lt;lazyT &#x27;Introduction&#x27;&gt;, False, &#x27;http://www.web2py.com/book/default/chapter/01&#x27;), (&lt;lazyT &#x27;Python&#x27;&gt;, False, &#x27;http://www.web2py.com/book/default/chapter/02&#x27;), (&lt;lazyT &#x27;Overview&#x27;&gt;, False, &#x27;http://www.web2py.com/book/default/chapter/03&#x27;), (&lt;lazyT &#x27;The Core&#x27;&gt;, False, &#x27;http://www.web2py.com/book/default/chapter/04&#x27;), (&lt;lazyT &#x27;The Views&#x27;&gt;, False, &#x27;http://www.web2py.com/book/default/chapter/05&#x27;), (&lt;lazyT &#x27;Database&#x27;&gt;, False, &#x27;http://www.web2py.com/book/default/chapter/06&#x27;), (&lt;lazyT &#x27;Forms and Validators&#x27;&gt;, False, &#x27;http://www.web2py.com/book/default/chapter/07&#x27;), (&lt;lazyT &#x27;Email and SMS&#x27;&gt;, False, &#x27;http://www.web2py.com/book/default/chapter/08&#x27;), (&lt;lazyT &#x27;Access Control&#x27;&gt;, False, &#x27;http://www.web2py.com/book/default/chapter/09&#x27;), (&lt;lazyT &#x27;Services&#x27;&gt;, False, &#x27;http://www.web2py.com/book/default/chapter/10&#x27;), (&lt;lazyT &#x27;Ajax Recipes&#x27;&gt;, False, &#x27;http://www.web2py.com/book/default/chapter/11&#x27;), (&lt;lazyT &#x27;Components and Plugins&#x27;&gt;, False, &#x27;http://www.web2py.com/book/default/chapter/12&#x27;), (&lt;lazyT &#x27;Deployment Recipes&#x27;&gt;, False, &#x27;http://www.web2py.com/book/default/chapter/13&#x27;), (&lt;lazyT &#x27;Other Recipes&#x27;&gt;, False, &#x27;http://www.web2py.com/book/default/chapter/14&#x27;), (&lt;lazyT &#x27;Buy this book&#x27;&gt;, False, &#x27;http://stores.lulu.com/web2py&#x27;)]</div></td></tr></table></div></td></tr><tr><td><div><table><tr><td><div>Community</div></td></tr><tr><td><div>False</div></td></tr><tr><td><div>None</div></td></tr><tr><td><div>[(&lt;lazyT &#x27;Groups&#x27;&gt;, False, &#x27;http://www.web2py.com/examples/default/usergroups&#x27;), (&lt;lazyT &#x27;Twitter&#x27;&gt;, False, &#x27;http://twitter.com/web2py&#x27;), (&lt;lazyT &#x27;Live Chat&#x27;&gt;, False, &#x27;http://webchat.freenode.net/?channels=web2py&#x27;)]</div></td></tr></table></div></td></tr><tr><td><div><table><tr><td><div>Plugins</div></td></tr><tr><td><div>False</div></td></tr><tr><td><div>None</div></td></tr><tr><td><div>[(&#x27;plugin_wiki&#x27;, False, &#x27;http://web2py.com/examples/default/download&#x27;), (&lt;lazyT &#x27;Other Plugins&#x27;&gt;, False, &#x27;http://web2py.com/plugins&#x27;), (&lt;lazyT &#x27;Layout Plugins&#x27;&gt;, False, &#x27;http://web2py.com/layouts&#x27;)]</div></td></tr></table></div></td></tr></table></div></td></tr></table></div></td></tr></table></div></td></tr><tr><td style="font-weight:bold;vertical-align:top;">meta</td><td style="vertical-align:top;">:</td><td><div><table><tr><td style="font-weight:bold;vertical-align:top;">author</td><td style="vertical-align:top;">:</td><td><div>Your Name &lt;you@example.com&gt;</div></td></tr><tr><td style="font-weight:bold;vertical-align:top;">generator</td><td style="vertical-align:top;">:</td><td><div>Web2py Web Framework</div></td></tr><tr><td style="font-weight:bold;vertical-align:top;">keywords</td><td style="vertical-align:top;">:</td><td><div>web2py, python, framework</div></td></tr></table></div></td></tr><tr><td style="font-weight:bold;vertical-align:top;">models_to_run</td><td style="vertical-align:top;">:</td><td><div><table><tr><td><div>^\\w+\\.py$</div></td></tr><tr><td><div>^user/\\w+\\.py$</div></td></tr><tr><td><div>^user/comments/\\w+\\.py$</div></td></tr></table></div></td></tr><tr><td style="font-weight:bold;vertical-align:top;">postprocessing</td><td style="vertical-align:top;">:</td><td><div><table></table></div></td></tr><tr><td style="font-weight:bold;vertical-align:top;">session_client</td><td style="vertical-align:top;">:</td><td><div>127.0.0.1</div></td></tr><tr><td style="font-weight:bold;vertical-align:top;">session_cookie_compression_level</td><td style="vertical-align:top;">:</td><td><div>None</div></td></tr><tr><td style="font-weight:bold;vertical-align:top;">session_cookie_expires</td><td style="vertical-align:top;">:</td><td><div>None</div></td></tr><tr><td style="font-weight:bold;vertical-align:top;">session_cookie_key</td><td style="vertical-align:top;">:</td><td><div>None</div></td></tr><tr><td style="font-weight:bold;vertical-align:top;">session_data_name</td><td style="vertical-align:top;">:</td><td><div>session_data_proj</div></td></tr><tr><td style="font-weight:bold;vertical-align:top;">session_file</td><td style="vertical-align:top;">:</td><td><div>&lt;open file &#x27;/ug/ug2k13/csd/rohith.reddy/web2py/applications/proj/sessions/127.0.0.1-d6d99fb4-edbf-45a7-9ebd-21930c4a4af0&#x27;, mode &#x27;rb+&#x27; at 0xaec47020&gt;</div></td></tr><tr><td style="font-weight:bold;vertical-align:top;">session_filename</td><td style="vertical-align:top;">:</td><td><div>/ug/ug2k13/csd/rohith.reddy/web2py/applications/proj/sessions/127.0.0.1-d6d99fb4-edbf-45a7-9ebd-21930c4a4af0</div></td></tr><tr><td style="font-weight:bold;vertical-align:top;">session_hash</td><td style="vertical-align:top;">:</td><td><div>d510a1061a522d9e030037cf9918a93d</div></td></tr><tr><td style="font-weight:bold;vertical-align:top;">session_id</td><td style="vertical-align:top;">:</td><td><div>127.0.0.1-d6d99fb4-edbf-45a7-9ebd-21930c4a4af0</div></td></tr><tr><td style="font-weight:bold;vertical-align:top;">session_id_name</td><td style="vertical-align:top;">:</td><td><div>session_id_proj</div></td></tr><tr><td style="font-weight:bold;vertical-align:top;">session_locked</td><td style="vertical-align:top;">:</td><td><div>True</div></td></tr><tr><td style="font-weight:bold;vertical-align:top;">session_masterapp</td><td style="vertical-align:top;">:</td><td><div>proj</div></td></tr><tr><td style="font-weight:bold;vertical-align:top;">session_new</td><td style="vertical-align:top;">:</td><td><div>False</div></td></tr><tr><td style="font-weight:bold;vertical-align:top;">session_storage_type</td><td style="vertical-align:top;">:</td><td><div>file</div></td></tr><tr><td style="font-weight:bold;vertical-align:top;">status</td><td style="vertical-align:top;">:</td><td><div>200</div></td></tr><tr><td style="font-weight:bold;vertical-align:top;">subtitle</td><td style="vertical-align:top;">:</td><td><div></div></td></tr><tr><td style="font-weight:bold;vertical-align:top;">title</td><td style="vertical-align:top;">:</td><td><div>Proj</div></td></tr><tr><td style="font-weight:bold;vertical-align:top;">view</td><td style="vertical-align:top;">:</td><td><div>user/comments.html</div></td></tr></table></div>'
tRp111
sS'locals'
p112
(dp113
S'Service'
p114
S"<class 'gluon.tools.Service'>"
p115
sS'OBJECT'
p116
S"<class 'gluon.html.OBJECT'>"
p117
sS'SQLDB'
p118
S"<class 'gluon.dal.DAL'>"
p119
sg104
S"<Storage {'flash': None, 'last_orderby': None, '...3b8f9', 'aea885a6-d836-48ce-b9e0-1e2e4a38e331']}>"
p120
sS'LINK'
p121
S"<class 'gluon.html.LINK'>"
p122
sS'BR'
p123
S"<class 'gluon.html.BR'>"
p124
sS'local_import'
p125
S'<function <lambda>>'
p126
sS'OPTGROUP'
p127
S"<class 'gluon.html.OPTGROUP'>"
p128
sS'__package__'
p129
S'None'
p130
sS'PRE'
p131
S"<class 'gluon.html.PRE'>"
p132
sS'IS_INT_IN_RANGE'
p133
S"<class 'gluon.validators.IS_INT_IN_RANGE'>"
p134
sS'IS_LOWER'
p135
S"<class 'gluon.validators.IS_LOWER'>"
p136
sS'IS_STRONG'
p137
S"<class 'gluon.validators.IS_STRONG'>"
p138
sS'cache'
p139
S'<gluon.cache.Cache object>'
p140
sS'IS_IN_DB'
p141
S"<class 'gluon.validators.IS_IN_DB'>"
p142
sS'TAG'
p143
S'<gluon.html.__TAG__ object>'
p144
sS'SQLField'
p145
S"<class 'gluon.dal.Field'>"
p146
sS'mail'
p147
S'<gluon.tools.Mail object>'
p148
sS'BODY'
p149
S"<class 'gluon.html.BODY'>"
p150
sS'IS_DATE_IN_RANGE'
p151
S"<class 'gluon.validators.IS_DATE_IN_RANGE'>"
p152
sS'IFRAME'
p153
S"<class 'gluon.html.IFRAME'>"
p154
sS'URL'
p155
S'<function URL>'
p156
sS'__file__'
p157
S"'/ug/ug2k13/csd/rohith.reddy/web2py/applications/proj/views/user/comments.html'"
p158
sS'db'
p159
S'<DAL uri="sqlite://storage.sqlite">'
p160
sS'auth'
p161
S'<gluon.tools.Auth object>'
p162
sS'P'
S"<class 'gluon.html.P'>"
p163
sS'TFOOT'
p164
S"<class 'gluon.html.TFOOT'>"
p165
sS'XHTML'
p166
S"<class 'gluon.html.XHTML'>"
p167
sS'ON'
p168
S'True'
p169
sS'OL'
p170
S"<class 'gluon.html.OL'>"
p171
sS'TEXTAREA'
p172
S"<class 'gluon.html.TEXTAREA'>"
p173
sS'MENU'
p174
S"<class 'gluon.html.MENU'>"
p175
sS'IS_IMAGE'
p176
S"<class 'gluon.validators.IS_IMAGE'>"
p177
sS'EM'
p178
S"<class 'gluon.html.EM'>"
p179
sS'CODE'
p180
S"<class 'gluon.html.CODE'>"
p181
sS'HTTP'
p182
S"<class 'gluon.http.HTTP'>"
p183
sS'HR'
p184
S"<class 'gluon.html.HR'>"
p185
sS'IS_DATETIME'
p186
S"<class 'gluon.validators.IS_DATETIME'>"
p187
sS'STYLE'
p188
S"<class 'gluon.html.STYLE'>"
p189
sS'LABEL'
p190
S"<class 'gluon.html.LABEL'>"
p191
sS'CLEANUP'
p192
S"<class 'gluon.validators.CLEANUP'>"
p193
sS'plugins'
p194
S'<gluon.tools.PluginManager object>'
p195
sS'SELECT'
p196
S"<class 'gluon.html.SELECT'>"
p197
sS'use_janrain'
p198
S'<function use_janrain>'
p199
sS'CENTER'
p200
S"<class 'gluon.html.CENTER'>"
p201
sS'prettydate'
p202
S'<function prettydate>'
p203
sS'Crud'
p204
S"<class 'gluon.tools.Crud'>"
p205
sS'Auth'
p206
S"<class 'gluon.tools.Auth'>"
p207
sS'DEVELOPMENT_MENU'
p208
g169
sS'__builtins__'
p209
S"{'ArithmeticError': <type 'exceptions.ArithmeticError'>, 'AssertionError': <type 'exceptions.AssertionError'>, 'AttributeError': <type 'exceptions.AttributeError'>, 'BaseException': <type 'exceptions.BaseException'>, 'BufferError': <type 'exceptions.BufferError'>, 'BytesWarning': <type 'exceptions.BytesWarning'>, 'DeprecationWarning': <type 'exceptions.DeprecationWarning'>, 'EOFError': <type 'exceptions.EOFError'>, 'Ellipsis': Ellipsis, 'EnvironmentError': <type 'exceptions.EnvironmentError'>, ...}"
p210
sS'HTML'
p211
S"<class 'gluon.html.HTML'>"
p212
sS'SQLFORM'
p213
S"<class 'gluon.sqlhtml.SQLFORM'>"
p214
sS'LOAD'
p215
S'<function LOAD>'
p216
sS'redirect'
p217
S'<function redirect>'
p218
sS'FIELDSET'
p219
S"<class 'gluon.html.FIELDSET'>"
p220
sS'IS_EQUAL_TO'
p221
S"<class 'gluon.validators.IS_EQUAL_TO'>"
p222
sS'embed64'
p223
S'<function embed64>'
p224
sS'IS_LIST_OF'
p225
S"<class 'gluon.validators.IS_LIST_OF'>"
p226
sS'INPUT'
p227
S"<class 'gluon.html.INPUT'>"
p228
sS'EMBED'
p229
S"<class 'gluon.html.EMBED'>"
p230
sS'_'
S'<function _>'
p231
sS'H2'
p232
S"<class 'gluon.html.H2'>"
p233
sS'H3'
p234
S"<class 'gluon.html.H3'>"
p235
sS'BUTTON'
p236
S"<class 'gluon.html.BUTTON'>"
p237
sS'H1'
p238
S"<class 'gluon.html.H1'>"
p239
sS'H6'
p240
S"<class 'gluon.html.H6'>"
p241
sS'H4'
p242
S"<class 'gluon.html.H4'>"
p243
sS'H5'
p244
S"<class 'gluon.html.H5'>"
p245
sS'UL'
p246
S"<class 'gluon.html.UL'>"
p247
sS'IS_UPPER'
p248
S"<class 'gluon.validators.IS_UPPER'>"
p249
sS'xmlescape'
p250
S'<function xmlescape>'
p251
sS'IS_TIME'
p252
S"<class 'gluon.validators.IS_TIME'>"
p253
sS'OPTION'
p254
S"<class 'gluon.html.OPTION'>"
p255
sS'TITLE'
p256
S"<class 'gluon.html.TITLE'>"
p257
sS'CRYPT'
p258
S"<class 'gluon.validators.CRYPT'>"
p259
sS'IS_EMPTY_OR'
p260
S"<class 'gluon.validators.IS_EMPTY_OR'>"
p261
sS'MARKMIN'
p262
S"<class 'gluon.html.MARKMIN'>"
p263
sS'__name__'
p264
S"'__restricted__'"
p265
sS'STRONG'
p266
S"<class 'gluon.html.STRONG'>"
p267
sS'COL'
p268
S"<class 'gluon.html.COL'>"
p269
sS'dbhome'
p270
S'<DAL uri="sqlite://storage.sqlite">'
p271
sS'service'
p272
S'<gluon.tools.Service object>'
p273
sS'SCRIPT'
p274
S"<class 'gluon.html.SCRIPT'>"
p275
sS'TABLE'
p276
S"<class 'gluon.html.TABLE'>"
p277
sS'IS_IPV4'
p278
S"<class 'gluon.validators.IS_IPV4'>"
p279
sS'IS_LENGTH'
p280
S"<class 'gluon.validators.IS_LENGTH'>"
p281
sS'IS_IPV6'
p282
S"<class 'gluon.validators.IS_IPV6'>"
p283
sS'XML'
p284
S"<class 'gluon.html.XML'>"
p285
sS'B'
S"<class 'gluon.html.B'>"
p286
sS'IMG'
p287
S"<class 'gluon.html.IMG'>"
p288
sS'SQLTABLE'
p289
S"<class 'gluon.sqlhtml.SQLTABLE'>"
p290
sS'IS_MATCH'
p291
S"<class 'gluon.validators.IS_MATCH'>"
p292
sS'IS_ALPHANUMERIC'
p293
S"<class 'gluon.validators.IS_ALPHANUMERIC'>"
p294
sS'SPAN'
p295
S"<class 'gluon.html.SPAN'>"
p296
sS'IS_JSON'
p297
S"<class 'gluon.validators.IS_JSON'>"
p298
sS'IS_IPADDRESS'
p299
S"<class 'gluon.validators.IS_IPADDRESS'>"
p300
sS'IS_SLUG'
p301
S"<class 'gluon.validators.IS_SLUG'>"
p302
sS'BEAUTIFY'
p303
S"<class 'gluon.html.BEAUTIFY'>"
p304
sS'META'
p305
S"<class 'gluon.html.META'>"
p306
sS'k'
S'<Rows (26)>'
p307
sS'IS_DATE'
p308
S"<class 'gluon.validators.IS_DATE'>"
p309
sS'IS_EMAIL'
p310
S"<class 'gluon.validators.IS_EMAIL'>"
p311
sS'IS_NOT_EMPTY'
p312
S"<class 'gluon.validators.IS_NOT_EMPTY'>"
p313
sS'IS_FLOAT_IN_RANGE'
p314
S"<class 'gluon.validators.IS_FLOAT_IN_RANGE'>"
p315
sS'TBODY'
p316
S"<class 'gluon.html.TBODY'>"
p317
sS'CAT'
p318
S"<class 'gluon.html.CAT'>"
p319
sS'Field'
p320
S"<class 'gluon.dal.Field'>"
p321
sS'IS_LIST_OF_EMAILS'
p322
S"<class 'gluon.validators.IS_LIST_OF_EMAILS'>"
p323
sS'DIV'
p324
S"<class 'gluon.html.DIV'>"
p325
sS'LEGEND'
p326
S"<class 'gluon.html.LEGEND'>"
p327
sS'COLGROUP'
p328
S"<class 'gluon.html.COLGROUP'>"
p329
sS'DAL'
p330
S"<class 'gluon.dal.DAL'>"
p331
sS'TT'
p332
S"<class 'gluon.html.TT'>"
p333
sS'TR'
p334
S"<class 'gluon.html.TR'>"
p335
sS'LI'
p336
S"<class 'gluon.html.LI'>"
p337
sS'TH'
p338
S"<class 'gluon.html.TH'>"
p339
sS'TD'
p340
S"<class 'gluon.html.TD'>"
p341
sS'PluginManager'
p342
S"<class 'gluon.tools.PluginManager'>"
p343
sS'IS_URL'
p344
S"<class 'gluon.validators.IS_URL'>"
p345
sS'A'
S"<class 'gluon.html.A'>"
p346
sS'HEAD'
p347
S"<class 'gluon.html.HEAD'>"
p348
sS'IS_DATETIME_IN_RANGE'
p349
S"<class 'gluon.validators.IS_DATETIME_IN_RANGE'>"
p350
sS'FORM'
p351
S"<class 'gluon.html.FORM'>"
p352
sS'I'
S"<class 'gluon.html.I'>"
p353
sS'crud'
p354
S'<gluon.tools.Crud object>'
p355
sS'IS_NOT_IN_DB'
p356
S"<class 'gluon.validators.IS_NOT_IN_DB'>"
p357
sg110
S"<Storage {'body': <cStringIO.StringO object at 0...da> at 0xa4261ec>, 'view': 'user/comments.html'}>"
p358
sS'THEAD'
p359
S"<class 'gluon.html.THEAD'>"
p360
sS'ANY_OF'
p361
S"<class 'gluon.validators.ANY_OF'>"
p362
sS'IS_NULL_OR'
p363
S"<class 'gluon.validators.IS_EMPTY_OR'>"
p364
sg56
S"<Storage {'_vars': None, 'function': 'comments',...k13/csd/rohith.reddy/web2py/applications/proj/'}>"
p365
sS'IS_EXPR'
p366
S"<class 'gluon.validators.IS_EXPR'>"
p367
sS'T'
S'<gluon.languages.translator object>'
p368
sS'IS_IN_SET'
p369
S"<class 'gluon.validators.IS_IN_SET'>"
p370
sS'IS_UPLOAD_FILENAME'
p371
S"<class 'gluon.validators.IS_UPLOAD_FILENAME'>"
p372
sS'IS_DECIMAL_IN_RANGE'
p373
S"<class 'gluon.validators.IS_DECIMAL_IN_RANGE'>"
p374
sssS'traceback'
p375
S'Traceback (most recent call last):\n  File "/ug/ug2k13/csd/rohith.reddy/web2py/gluon/restricted.py", line 220, in restricted\n    exec ccode in environment\n  File "/ug/ug2k13/csd/rohith.reddy/web2py/applications/proj/views/user/comments.html", line 4, in <module>\n    #container{\nIndexError: list index out of range\n'
p376
s.