(dp1
S'output'
p2
S"<type 'exceptions.AttributeError'> 'int' object has no attribute 'image'"
p3
sS'layer'
p4
S'/ug/ug2k13/csd/rohith.reddy/web2py/applications/proj/views/user/grid.html'
p5
sS'code'
p6
S'response.write(\'<html>\\n<head>\\n<style>\\n\\nul.rig{\\nlist-style: none;\\nfont-size: 0px;\\nmargin-left:15% ;\\nmargin-right:10% ;\\n}\\nul.rig li {\\ndisplay: inline-block;\\npadding: 10px;\\nbackground: #fff;\\nborder: 1px solid #ddd;\\n        font-size: 16px;\\n        font-size: 1rem;\\n        vertical-align: top;\\n        box-shadow: 0 0 5px #ddd;\\n        box-sizing: border-box;\\n        -moz-box-sizing: border-box;\\n        -webkit-box-sizing: border-box;\\n}\\nul.rig li img { \\n        max-width: 100%;\\nheight: 400px;\\nwidth:250px ;\\nmargin: 0 0 10px;\\n}\\n</style>\\n<meta name="viewport" content="width=device-width, initial-scale=1">\\n<link rel="stylesheet" href="http://code.jquery.com/mobile/1.4.2/jquery.mobile-1.4.2.min.css">\\n<script src="http://code.jquery.com/jquery-1.10.2.min.js"></script>\\n<script src="http://code.jquery.com/mobile/1.4.2/jquery.mobile-1.4.2.min.js"></script>\\n</head>\\n<body>\\n\\n<div data-role="page" id="pageone">\\n<div data-role="header">\\n<h1>FOTOLOG</h1>\\n<div data-role="navbar">\\n<ul>\\n<li><a href="#">OLD JOURNALS</a></li>\\n<li><a href="index.html">FRIENDS</a></li>\\n<li><a href="http://127.0.0.1:8000/proj/user/display_form">UPLOAD</a></li>\\n</ul>\\n</div>\\n</div>\\n<h3>Welcome To FotoLog \', escape=False)\nresponse.write(request.args[0])\nresponse.write(\' !!!!!!</h3>\\n    <h3>Your Journal has \', escape=False)\nresponse.write(num[\'no\'])\nresponse.write(\' photo/s</h3>\\n<div data-role="main" class="ui-content">\\n<!--p>\\nadd content!! im bored!!\\n\\n</p-->\\n<!--html>\\n<head>\\n<link rel="stylesheet" type="text/css" href="gridtest.css">\\n</head-->\\n<body>\\n<ul class="rig">\\n\', escape=False)\nfor i in lst:\n    response.write(\'\\n   <!-- <li><img src="\', escape=False)\n    response.write(URL(\'download\',args=lst[0].image))\n    response.write(\'" alt="Empty" width="200"  height="400" onclick="window.location=\\\'\', escape=False)\n    URL(c=\'user\',f=\'comments\', args=[lst[i].id])\n    response.write(\'\\\'"/></li>-->\\n   \', escape=False)\n    response.write(LI(A(IMG(_src=URL(\'download\',args=i.image),_alt=\'Empty\'), _href=URL(c=\'user\',f=\'comments\', args=i.id))))\n    response.write(\'\\n    <!-- \', escape=False)\n    response.write(LI(A(IMG(_src=URL(\'download\',args=lst[i].image),_alt=\'Empty\'),)))\n    response.write(\'-->\\n    <!--<li>\', escape=False)\n    response.write(IMG(_src=URL(\'download\',args=lst[i].image),_alt=\'Empty\'))\n    response.write(\'</li>-->\\n    \', escape=False)\n    pass\nresponse.write(\'\\n</ul>\\n</div>\\n<div data-role="footer">\\n    <h1>\\xc2\\xa9 All material on this site is copyright fotolog and its contributors.</h1>\\n  </div>\\n</div> \\n</body>\\n</html>\\n\', escape=False)'
p7
sS'snapshot'
p8
(dp9
S'exception'
p10
(dp11
S'__hash__'
p12
S"<method-wrapper '__hash__' of exceptions.AttributeError object>"
p13
sS'__setattr__'
p14
S"<method-wrapper '__setattr__' of exceptions.AttributeError object>"
p15
sS'__reduce_ex__'
p16
S'<built-in method __reduce_ex__ of exceptions.AttributeError object>'
p17
sS'__getslice__'
p18
S"<method-wrapper '__getslice__' of exceptions.AttributeError object>"
p19
sS'__getitem__'
p20
S"<method-wrapper '__getitem__' of exceptions.AttributeError object>"
p21
sS'__setstate__'
p22
S'<built-in method __setstate__ of exceptions.AttributeError object>'
p23
sS'__reduce__'
p24
S'<built-in method __reduce__ of exceptions.AttributeError object>'
p25
sS'__str__'
p26
S"<method-wrapper '__str__' of exceptions.AttributeError object>"
p27
sS'__format__'
p28
S'<built-in method __format__ of exceptions.AttributeError object>'
p29
sS'__getattribute__'
p30
S"<method-wrapper '__getattribute__' of exceptions.AttributeError object>"
p31
sS'__class__'
p32
S"<type 'exceptions.AttributeError'>"
p33
sS'__unicode__'
p34
S'<built-in method __unicode__ of exceptions.AttributeError object>'
p35
sS'__delattr__'
p36
S"<method-wrapper '__delattr__' of exceptions.AttributeError object>"
p37
sS'__subclasshook__'
p38
S'<built-in method __subclasshook__ of type object>'
p39
sS'__repr__'
p40
S"<method-wrapper '__repr__' of exceptions.AttributeError object>"
p41
sS'args'
p42
S'("\'int\' object has no attribute \'image\'",)'
p43
sS'__dict__'
p44
S'{}'
p45
sS'__sizeof__'
p46
S'<built-in method __sizeof__ of exceptions.AttributeError object>'
p47
sS'__doc__'
p48
S"'Attribute not found.'"
p49
sS'__init__'
p50
S"<method-wrapper '__init__' of exceptions.AttributeError object>"
p51
sS'__new__'
p52
S'<built-in method __new__ of type object>'
p53
ssS'evalue'
p54
S"'int' object has no attribute 'image'"
p55
sS'request'
p56
cgluon.html
XML_unpickle
p57
(S's?[\x00\x00<div><table><tr><td style="font-weight:bold;vertical-align:top;">ajax</td><td style="vertical-align:top;">:</td><td><div>True</div></td></tr><tr><td style="font-weight:bold;vertical-align:top;">application</td><td style="vertical-align:top;">:</td><td><div>proj</div></td></tr><tr><td style="font-weight:bold;vertical-align:top;">args</td><td style="vertical-align:top;">:</td><td><div><table><tr><td><div>abhilash</div></td></tr></table></div></td></tr><tr><td style="font-weight:bold;vertical-align:top;">cid</td><td style="vertical-align:top;">:</td><td><div>None</div></td></tr><tr><td style="font-weight:bold;vertical-align:top;">client</td><td style="vertical-align:top;">:</td><td><div>127.0.0.1</div></td></tr><tr><td style="font-weight:bold;vertical-align:top;">controller</td><td style="vertical-align:top;">:</td><td><div>user</div></td></tr><tr><td style="font-weight:bold;vertical-align:top;">cookies</td><td style="vertical-align:top;">:</td><td><div><table><tr><td style="font-weight:bold;vertical-align:top;">session_id_admin</td><td style="vertical-align:top;">:</td><td><div>127.0.0.1-6f343b0a-3ff0-4a6d-a5e2-21a44e459d9d<table><tr><td style="font-weight:bold;vertical-align:top;">comment</td><td style="vertical-align:top;">:</td><td><div></div></td></tr><tr><td style="font-weight:bold;vertical-align:top;">domain</td><td style="vertical-align:top;">:</td><td><div></div></td></tr><tr><td style="font-weight:bold;vertical-align:top;">expires</td><td style="vertical-align:top;">:</td><td><div></div></td></tr><tr><td style="font-weight:bold;vertical-align:top;">httponly</td><td style="vertical-align:top;">:</td><td><div></div></td></tr><tr><td style="font-weight:bold;vertical-align:top;">max-age</td><td style="vertical-align:top;">:</td><td><div></div></td></tr><tr><td style="font-weight:bold;vertical-align:top;">path</td><td style="vertical-align:top;">:</td><td><div></div></td></tr><tr><td style="font-weight:bold;vertical-align:top;">secure</td><td style="vertical-align:top;">:</td><td><div></div></td></tr><tr><td style="font-weight:bold;vertical-align:top;">version</td><td style="vertical-align:top;">:</td><td><div></div></td></tr></table></div></td></tr><tr><td style="font-weight:bold;vertical-align:top;">session_id_proj</td><td style="vertical-align:top;">:</td><td><div>127.0.0.1-d6d99fb4-edbf-45a7-9ebd-21930c4a4af0<table><tr><td style="font-weight:bold;vertical-align:top;">comment</td><td style="vertical-align:top;">:</td><td><div></div></td></tr><tr><td style="font-weight:bold;vertical-align:top;">domain</td><td style="vertical-align:top;">:</td><td><div></div></td></tr><tr><td style="font-weight:bold;vertical-align:top;">expires</td><td style="vertical-align:top;">:</td><td><div></div></td></tr><tr><td style="font-weight:bold;vertical-align:top;">httponly</td><td style="vertical-align:top;">:</td><td><div></div></td></tr><tr><td style="font-weight:bold;vertical-align:top;">max-age</td><td style="vertical-align:top;">:</td><td><div></div></td></tr><tr><td style="font-weight:bold;vertical-align:top;">path</td><td style="vertical-align:top;">:</td><td><div></div></td></tr><tr><td style="font-weight:bold;vertical-align:top;">secure</td><td style="vertical-align:top;">:</td><td><div></div></td></tr><tr><td style="font-weight:bold;vertical-align:top;">version</td><td style="vertical-align:top;">:</td><td><div></div></td></tr></table></div></td></tr><tr><td style="font-weight:bold;vertical-align:top;">session_id_welcome</td><td style="vertical-align:top;">:</td><td><div>127.0.0.1-f62651a1-f283-4623-ade3-289eff35f34d<table><tr><td style="font-weight:bold;vertical-align:top;">comment</td><td style="vertical-align:top;">:</td><td><div></div></td></tr><tr><td style="font-weight:bold;vertical-align:top;">domain</td><td style="vertical-align:top;">:</td><td><div></div></td></tr><tr><td style="font-weight:bold;vertical-align:top;">expires</td><td style="vertical-align:top;">:</td><td><div></div></td></tr><tr><td style="font-weight:bold;vertical-align:top;">httponly</td><td style="vertical-align:top;">:</td><td><div></div></td></tr><tr><td style="font-weight:bold;vertical-align:top;">max-age</td><td style="vertical-align:top;">:</td><td><div></div></td></tr><tr><td style="font-weight:bold;vertical-align:top;">path</td><td style="vertical-align:top;">:</td><td><div></div></td></tr><tr><td style="font-weight:bold;vertical-align:top;">secure</td><td style="vertical-align:top;">:</td><td><div></div></td></tr><tr><td style="font-weight:bold;vertical-align:top;">version</td><td style="vertical-align:top;">:</td><td><div></div></td></tr></table></div></td></tr></table></div></td></tr><tr><td style="font-weight:bold;vertical-align:top;">env</td><td style="vertical-align:top;">:</td><td><div><table><tr><td style="font-weight:bold;vertical-align:top;">HTTP_ACCEPT</td><td style="vertical-align:top;">:</td><td><div>text/html, */*; q=0.01</div></td></tr><tr><td style="font-weight:bold;vertical-align:top;">HTTP_ACCEPT_ENCODING</td><td style="vertical-align:top;">:</td><td><div>gzip, deflate</div></td></tr><tr><td style="font-weight:bold;vertical-align:top;">HTTP_ACCEPT_LANGUAGE</td><td style="vertical-align:top;">:</td><td><div>en-US,en;q=0.5</div></td></tr><tr><td style="font-weight:bold;vertical-align:top;">HTTP_CONNECTION</td><td style="vertical-align:top;">:</td><td><div>keep-alive</div></td></tr><tr><td style="font-weight:bold;vertical-align:top;">HTTP_COOKIE</td><td style="vertical-align:top;">:</td><td><div>session_id_welcome=127.0.0.1-f62651a1-f283-4623-ade3-289eff35f34d; session_id_admin=127.0.0.1-6f343b0a-3ff0-4a6d-a5e2-21a44e459d9d; session_id_proj=127.0.0.1-d6d99fb4-edbf-45a7-9ebd-21930c4a4af0</div></td></tr><tr><td style="font-weight:bold;vertical-align:top;">HTTP_HOST</td><td style="vertical-align:top;">:</td><td><div>127.0.0.1:8000</div></td></tr><tr><td style="font-weight:bold;vertical-align:top;">HTTP_REFERER</td><td style="vertical-align:top;">:</td><td><div>http://127.0.0.1:8000/proj/default/common</div></td></tr><tr><td style="font-weight:bold;vertical-align:top;">HTTP_USER_AGENT</td><td style="vertical-align:top;">:</td><td><div>Mozilla/5.0 (X11; Linux i686; rv:28.0) Gecko/20100101 Firefox/28.0</div></td></tr><tr><td style="font-weight:bold;vertical-align:top;">HTTP_X_REQUESTED_WITH</td><td style="vertical-align:top;">:</td><td><div>XMLHttpRequest</div></td></tr><tr><td style="font-weight:bold;vertical-align:top;">PATH_INFO</td><td style="vertical-align:top;">:</td><td><div>/proj/user/grid/abhilash</div></td></tr><tr><td style="font-weight:bold;vertical-align:top;">QUERY_STRING</td><td style="vertical-align:top;">:</td><td><div></div></td></tr><tr><td style="font-weight:bold;vertical-align:top;">REMOTE_ADDR</td><td style="vertical-align:top;">:</td><td><div>127.0.0.1</div></td></tr><tr><td style="font-weight:bold;vertical-align:top;">REMOTE_PORT</td><td style="vertical-align:top;">:</td><td><div>42088</div></td></tr><tr><td style="font-weight:bold;vertical-align:top;">REQUEST_METHOD</td><td style="vertical-align:top;">:</td><td><div>GET</div></td></tr><tr><td style="font-weight:bold;vertical-align:top;">SCRIPT_NAME</td><td style="vertical-align:top;">:</td><td><div></div></td></tr><tr><td style="font-weight:bold;vertical-align:top;">SERVER_NAME</td><td style="vertical-align:top;">:</td><td><div>CR130101</div></td></tr><tr><td style="font-weight:bold;vertical-align:top;">SERVER_PORT</td><td style="vertical-align:top;">:</td><td><div>8000</div></td></tr><tr><td style="font-weight:bold;vertical-align:top;">SERVER_PROTOCOL</td><td style="vertical-align:top;">:</td><td><div>HTTP/1.1</div></td></tr><tr><td style="font-weight:bold;vertical-align:top;">SERVER_SOFTWARE</td><td style="vertical-align:top;">:</td><td><div>Rocket 1.2.6</div></td></tr><tr><td style="font-weight:bold;vertical-align:top;">app_folders</td><td style="vertical-align:top;">:</td><td><div>set([&#x27;/ug/ug2k13/csd/rohith.reddy/web2py/applications/admin/&#x27;, &#x27;/ug/ug2k13/csd/rohith.reddy/web2py/applications/proj/&#x27;, &#x27;/ug/ug2k13/csd/rohith.reddy/web2py/applications/welcome/&#x27;])</div></td></tr><tr><td style="font-weight:bold;vertical-align:top;">applications_parent</td><td style="vertical-align:top;">:</td><td><div>/ug/ug2k13/csd/rohith.reddy/web2py</div></td></tr><tr><td style="font-weight:bold;vertical-align:top;">cmd_args</td><td style="vertical-align:top;">:</td><td><div><table></table></div></td></tr><tr><td style="font-weight:bold;vertical-align:top;">cmd_options</td><td style="vertical-align:top;">:</td><td><div>&lt;Values at 0x9f9aa0c: {&#x27;verbose&#x27;: False, &#x27;ip&#x27;: &#x27;127.0.0.1&#x27;, &#x27;debuglevel&#x27;: 30, &#x27;with_scheduler&#x27;: False, &#x27;ips&#x27;: [&#x27;::1&#x27;], &#x27;shutdown_timeout&#x27;: 5, &#x27;taskbar&#x27;: False, &#x27;with_coverage&#x27;: False, &#x27;port&#x27;: 8000, &#x27;maxthreads&#x27;: None, &#x27;softcron&#x27;: False, &#x27;server_name&#x27;: &#x27;CR130101&#x27;, &#x27;bpython&#x27;: False, &#x27;nogui&#x27;: False, &#x27;pid_filename&#x27;: &#x27;httpserver.pid&#x27;, &#x27;extcron&#x27;: False, &#x27;runcron&#x27;: False, &#x27;run_system_tests&#x27;: False, &#x27;test&#x27;: None, &#x27;folder&#x27;: &#x27;/ug/ug2k13/csd/rohith.reddy/web2py&#x27;, &#x27;config&#x27;: &#x27;&#x27;, &#x27;minthreads&#x27;: None, &#x27;shell&#x27;: None, &#x27;run&#x27;: &#x27;&#x27;, &#x27;log_filename&#x27;: &#x27;httpserver.log&#x27;, &#x27;profiler_dir&#x27;: None, &#x27;args&#x27;: [&#x27;&#x27;], &#x27;socket_timeout&#x27;: 5, &#x27;ssl_ca_certificate&#x27;: None, &#x27;scheduler&#x27;: None, &#x27;interfaces&#x27;: None, &#x27;ssl_private_key&#x27;: &#x27;&#x27;, &#x27;scheduler_groups&#x27;: None, &#x27;password&#x27;: &#x27;&lt;ask&gt;&#x27;, &#x27;request_queue_size&#x27;: 5, &#x27;ssl_certificate&#x27;: &#x27;&#x27;, &#x27;cronjob&#x27;: False, &#x27;numthreads&#x27;: None, &#x27;quiet&#x27;: False, &#x27;import_models&#x27;: False, &#x27;timeout&#x27;: 10, &#x27;plain&#x27;: False, &#x27;nobanner&#x27;: False}&gt;</div></td></tr><tr><td style="font-weight:bold;vertical-align:top;">db_sessions</td><td style="vertical-align:top;">:</td><td><div>set([])</div></td></tr><tr><td style="font-weight:bold;vertical-align:top;">debugging</td><td style="vertical-align:top;">:</td><td><div>True</div></td></tr><tr><td style="font-weight:bold;vertical-align:top;">gluon_parent</td><td style="vertical-align:top;">:</td><td><div>/ug/ug2k13/csd/rohith.reddy/web2py</div></td></tr><tr><td style="font-weight:bold;vertical-align:top;">http_accept</td><td style="vertical-align:top;">:</td><td><div>text/html, */*; q=0.01</div></td></tr><tr><td style="font-weight:bold;vertical-align:top;">http_accept_encoding</td><td style="vertical-align:top;">:</td><td><div>gzip, deflate</div></td></tr><tr><td style="font-weight:bold;vertical-align:top;">http_accept_language</td><td style="vertical-align:top;">:</td><td><div>en-US,en;q=0.5</div></td></tr><tr><td style="font-weight:bold;vertical-align:top;">http_connection</td><td style="vertical-align:top;">:</td><td><div>keep-alive</div></td></tr><tr><td style="font-weight:bold;vertical-align:top;">http_cookie</td><td style="vertical-align:top;">:</td><td><div>session_id_welcome=127.0.0.1-f62651a1-f283-4623-ade3-289eff35f34d; session_id_admin=127.0.0.1-6f343b0a-3ff0-4a6d-a5e2-21a44e459d9d; session_id_proj=127.0.0.1-d6d99fb4-edbf-45a7-9ebd-21930c4a4af0</div></td></tr><tr><td style="font-weight:bold;vertical-align:top;">http_host</td><td style="vertical-align:top;">:</td><td><div>127.0.0.1:8000</div></td></tr><tr><td style="font-weight:bold;vertical-align:top;">http_referer</td><td style="vertical-align:top;">:</td><td><div>http://127.0.0.1:8000/proj/default/common</div></td></tr><tr><td style="font-weight:bold;vertical-align:top;">http_user_agent</td><td style="vertical-align:top;">:</td><td><div>Mozilla/5.0 (X11; Linux i686; rv:28.0) Gecko/20100101 Firefox/28.0</div></td></tr><tr><td style="font-weight:bold;vertical-align:top;">http_x_requested_with</td><td style="vertical-align:top;">:</td><td><div>XMLHttpRequest</div></td></tr><tr><td style="font-weight:bold;vertical-align:top;">is_jython</td><td style="vertical-align:top;">:</td><td><div>False</div></td></tr><tr><td style="font-weight:bold;vertical-align:top;">is_pypy</td><td style="vertical-align:top;">:</td><td><div>False</div></td></tr><tr><td style="font-weight:bold;vertical-align:top;">is_source</td><td style="vertical-align:top;">:</td><td><div>True</div></td></tr><tr><td style="font-weight:bold;vertical-align:top;">local_hosts</td><td style="vertical-align:top;">:</td><td><div><table><tr><td><div>10.3.11.48</div></td></tr><tr><td><div>::ffff:127.0.0.1</div></td></tr><tr><td><div>::1</div></td></tr><tr><td><div>CR130101</div></td></tr><tr><td><div>localhost6.localdomain6</div></td></tr><tr><td><div>127.0.0.1</div></td></tr></table></div></td></tr><tr><td style="font-weight:bold;vertical-align:top;">path_info</td><td style="vertical-align:top;">:</td><td><div>/proj/user/grid/abhilash</div></td></tr><tr><td style="font-weight:bold;vertical-align:top;">query_string</td><td style="vertical-align:top;">:</td><td><div></div></td></tr><tr><td style="font-weight:bold;vertical-align:top;">remote_addr</td><td style="vertical-align:top;">:</td><td><div>127.0.0.1</div></td></tr><tr><td style="font-weight:bold;vertical-align:top;">remote_port</td><td style="vertical-align:top;">:</td><td><div>42088</div></td></tr><tr><td style="font-weight:bold;vertical-align:top;">request_method</td><td style="vertical-align:top;">:</td><td><div>GET</div></td></tr><tr><td style="font-weight:bold;vertical-align:top;">request_uri</td><td style="vertical-align:top;">:</td><td><div>/proj/user/grid/abhilash</div></td></tr><tr><td style="font-weight:bold;vertical-align:top;">script_name</td><td style="vertical-align:top;">:</td><td><div></div></td></tr><tr><td style="font-weight:bold;vertical-align:top;">server_name</td><td style="vertical-align:top;">:</td><td><div>CR130101</div></td></tr><tr><td style="font-weight:bold;vertical-align:top;">server_port</td><td style="vertical-align:top;">:</td><td><div>8000</div></td></tr><tr><td style="font-weight:bold;vertical-align:top;">server_protocol</td><td style="vertical-align:top;">:</td><td><div>HTTP/1.1</div></td></tr><tr><td style="font-weight:bold;vertical-align:top;">server_software</td><td style="vertical-align:top;">:</td><td><div>Rocket 1.2.6</div></td></tr><tr><td style="font-weight:bold;vertical-align:top;">web2py_path</td><td style="vertical-align:top;">:</td><td><div>/ug/ug2k13/csd/rohith.reddy/web2py</div></td></tr><tr><td style="font-weight:bold;vertical-align:top;">web2py_version</td><td style="vertical-align:top;">:</td><td><div>2.9.5-stable+timestamp.2014.03.16.02.35.39</div></td></tr><tr><td style="font-weight:bold;vertical-align:top;">wsgi.errors</td><td style="vertical-align:top;">:</td><td><div>&lt;open file &#x27;&lt;stderr&gt;&#x27;, mode &#x27;w&#x27; at 0xb76f50d0&gt;</div></td></tr><tr><td style="font-weight:bold;vertical-align:top;">wsgi.file_wrapper</td><td style="vertical-align:top;">:</td><td><div>&lt;class wsgiref.util.FileWrapper at 0x9f56e9c&gt;</div></td></tr><tr><td style="font-weight:bold;vertical-align:top;">wsgi.input</td><td style="vertical-align:top;">:</td><td><div>&lt;socket._fileobject object at 0xaeed19ac&gt;</div></td></tr><tr><td style="font-weight:bold;vertical-align:top;">wsgi.multiprocess</td><td style="vertical-align:top;">:</td><td><div>False</div></td></tr><tr><td style="font-weight:bold;vertical-align:top;">wsgi.multithread</td><td style="vertical-align:top;">:</td><td><div>True</div></td></tr><tr><td style="font-weight:bold;vertical-align:top;">wsgi.run_once</td><td style="vertical-align:top;">:</td><td><div>False</div></td></tr><tr><td style="font-weight:bold;vertical-align:top;">wsgi.url_scheme</td><td style="vertical-align:top;">:</td><td><div>http</div></td></tr><tr><td style="font-weight:bold;vertical-align:top;">wsgi.version</td><td style="vertical-align:top;">:</td><td><div><table><tr><td><div>1</div></td></tr><tr><td><div>0</div></td></tr></table></div></td></tr><tr><td style="font-weight:bold;vertical-align:top;">wsgi_errors</td><td style="vertical-align:top;">:</td><td><div>&lt;open file &#x27;&lt;stderr&gt;&#x27;, mode &#x27;w&#x27; at 0xb76f50d0&gt;</div></td></tr><tr><td style="font-weight:bold;vertical-align:top;">wsgi_file_wrapper</td><td style="vertical-align:top;">:</td><td><div>&lt;class wsgiref.util.FileWrapper at 0x9f56e9c&gt;</div></td></tr><tr><td style="font-weight:bold;vertical-align:top;">wsgi_input</td><td style="vertical-align:top;">:</td><td><div>&lt;socket._fileobject object at 0xaeed19ac&gt;</div></td></tr><tr><td style="font-weight:bold;vertical-align:top;">wsgi_multiprocess</td><td style="vertical-align:top;">:</td><td><div>False</div></td></tr><tr><td style="font-weight:bold;vertical-align:top;">wsgi_multithread</td><td style="vertical-align:top;">:</td><td><div>True</div></td></tr><tr><td style="font-weight:bold;vertical-align:top;">wsgi_run_once</td><td style="vertical-align:top;">:</td><td><div>False</div></td></tr><tr><td style="font-weight:bold;vertical-align:top;">wsgi_url_scheme</td><td style="vertical-align:top;">:</td><td><div>http</div></td></tr><tr><td style="font-weight:bold;vertical-align:top;">wsgi_version</td><td style="vertical-align:top;">:</td><td><div><table><tr><td><div>1</div></td></tr><tr><td><div>0</div></td></tr></table></div></td></tr></table></div></td></tr><tr><td style="font-weight:bold;vertical-align:top;">extension</td><td style="vertical-align:top;">:</td><td><div>html</div></td></tr><tr><td style="font-weight:bold;vertical-align:top;">folder</td><td style="vertical-align:top;">:</td><td><div>/ug/ug2k13/csd/rohith.reddy/web2py/applications/proj/</div></td></tr><tr><td style="font-weight:bold;vertical-align:top;">function</td><td style="vertical-align:top;">:</td><td><div>grid</div></td></tr><tr><td style="font-weight:bold;vertical-align:top;">global_settings</td><td style="vertical-align:top;">:</td><td><div><table><tr><td style="font-weight:bold;vertical-align:top;">app_folders</td><td style="vertical-align:top;">:</td><td><div>set([&#x27;/ug/ug2k13/csd/rohith.reddy/web2py/applications/admin/&#x27;, &#x27;/ug/ug2k13/csd/rohith.reddy/web2py/applications/proj/&#x27;, &#x27;/ug/ug2k13/csd/rohith.reddy/web2py/applications/welcome/&#x27;])</div></td></tr><tr><td style="font-weight:bold;vertical-align:top;">applications_parent</td><td style="vertical-align:top;">:</td><td><div>/ug/ug2k13/csd/rohith.reddy/web2py</div></td></tr><tr><td style="font-weight:bold;vertical-align:top;">cmd_args</td><td style="vertical-align:top;">:</td><td><div><table></table></div></td></tr><tr><td style="font-weight:bold;vertical-align:top;">cmd_options</td><td style="vertical-align:top;">:</td><td><div>&lt;Values at 0x9f9aa0c: {&#x27;verbose&#x27;: False, &#x27;ip&#x27;: &#x27;127.0.0.1&#x27;, &#x27;debuglevel&#x27;: 30, &#x27;with_scheduler&#x27;: False, &#x27;ips&#x27;: [&#x27;::1&#x27;], &#x27;shutdown_timeout&#x27;: 5, &#x27;taskbar&#x27;: False, &#x27;with_coverage&#x27;: False, &#x27;port&#x27;: 8000, &#x27;maxthreads&#x27;: None, &#x27;softcron&#x27;: False, &#x27;server_name&#x27;: &#x27;CR130101&#x27;, &#x27;bpython&#x27;: False, &#x27;nogui&#x27;: False, &#x27;pid_filename&#x27;: &#x27;httpserver.pid&#x27;, &#x27;extcron&#x27;: False, &#x27;runcron&#x27;: False, &#x27;run_system_tests&#x27;: False, &#x27;test&#x27;: None, &#x27;folder&#x27;: &#x27;/ug/ug2k13/csd/rohith.reddy/web2py&#x27;, &#x27;config&#x27;: &#x27;&#x27;, &#x27;minthreads&#x27;: None, &#x27;shell&#x27;: None, &#x27;run&#x27;: &#x27;&#x27;, &#x27;log_filename&#x27;: &#x27;httpserver.log&#x27;, &#x27;profiler_dir&#x27;: None, &#x27;args&#x27;: [&#x27;&#x27;], &#x27;socket_timeout&#x27;: 5, &#x27;ssl_ca_certificate&#x27;: None, &#x27;scheduler&#x27;: None, &#x27;interfaces&#x27;: None, &#x27;ssl_private_key&#x27;: &#x27;&#x27;, &#x27;scheduler_groups&#x27;: None, &#x27;password&#x27;: &#x27;&lt;ask&gt;&#x27;, &#x27;request_queue_size&#x27;: 5, &#x27;ssl_certificate&#x27;: &#x27;&#x27;, &#x27;cronjob&#x27;: False, &#x27;numthreads&#x27;: None, &#x27;quiet&#x27;: False, &#x27;import_models&#x27;: False, &#x27;timeout&#x27;: 10, &#x27;plain&#x27;: False, &#x27;nobanner&#x27;: False}&gt;</div></td></tr><tr><td style="font-weight:bold;vertical-align:top;">db_sessions</td><td style="vertical-align:top;">:</td><td><div>set([])</div></td></tr><tr><td style="font-weight:bold;vertical-align:top;">debugging</td><td style="vertical-align:top;">:</td><td><div>True</div></td></tr><tr><td style="font-weight:bold;vertical-align:top;">gluon_parent</td><td style="vertical-align:top;">:</td><td><div>/ug/ug2k13/csd/rohith.reddy/web2py</div></td></tr><tr><td style="font-weight:bold;vertical-align:top;">is_jython</td><td style="vertical-align:top;">:</td><td><div>False</div></td></tr><tr><td style="font-weight:bold;vertical-align:top;">is_pypy</td><td style="vertical-align:top;">:</td><td><div>False</div></td></tr><tr><td style="font-weight:bold;vertical-align:top;">is_source</td><td style="vertical-align:top;">:</td><td><div>True</div></td></tr><tr><td style="font-weight:bold;vertical-align:top;">local_hosts</td><td style="vertical-align:top;">:</td><td><div><table><tr><td><div>10.3.11.48</div></td></tr><tr><td><div>::ffff:127.0.0.1</div></td></tr><tr><td><div>::1</div></td></tr><tr><td><div>CR130101</div></td></tr><tr><td><div>localhost6.localdomain6</div></td></tr><tr><td><div>127.0.0.1</div></td></tr></table></div></td></tr><tr><td style="font-weight:bold;vertical-align:top;">web2py_version</td><td style="vertical-align:top;">:</td><td><div>2.9.5-stable+timestamp.2014.03.16.02.35.39</div></td></tr></table></div></td></tr><tr><td style="font-weight:bold;vertical-align:top;">is_https</td><td style="vertical-align:top;">:</td><td><div>False</div></td></tr><tr><td style="font-weight:bold;vertical-align:top;">is_local</td><td style="vertical-align:top;">:</td><td><div>True</div></td></tr><tr><td style="font-weight:bold;vertical-align:top;">is_restful</td><td style="vertical-align:top;">:</td><td><div>False</div></td></tr><tr><td style="font-weight:bold;vertical-align:top;">now</td><td style="vertical-align:top;">:</td><td><div>datetime.datetime(2014, 3, 25, 23, 37, 20, 85834)</div></td></tr><tr><td style="font-weight:bold;vertical-align:top;">raw_args</td><td style="vertical-align:top;">:</td><td><div>abhilash</div></td></tr><tr><td style="font-weight:bold;vertical-align:top;">raw_extension</td><td style="vertical-align:top;">:</td><td><div>None</div></td></tr><tr><td style="font-weight:bold;vertical-align:top;">url</td><td style="vertical-align:top;">:</td><td><div>/proj/user/grid/abhilash</div></td></tr><tr><td style="font-weight:bold;vertical-align:top;">utcnow</td><td style="vertical-align:top;">:</td><td><div>datetime.datetime(2014, 3, 25, 18, 7, 20, 85870)</div></td></tr><tr><td style="font-weight:bold;vertical-align:top;">uuid</td><td style="vertical-align:top;">:</td><td><div>proj/127.0.0.1.2014-03-25.23-37-20.fdf73894-e70d-4bf3-87ff-0093a7a8ba6d</div></td></tr><tr><td style="font-weight:bold;vertical-align:top;">wsgi</td><td style="vertical-align:top;">:</td><td><div>&lt;gluon.main.LazyWSGI object at 0xaec8366c&gt;</div></td></tr></table></div>'
tRp58
sS'frames'
p59
(lp60
(dp61
S'file'
p62
S'/ug/ug2k13/csd/rohith.reddy/web2py/gluon/restricted.py'
p63
sS'dump'
p64
(dp65
S'environment'
p66
S"{'A': <class 'gluon.html.A'>, 'ANY_OF': <class 'gluon.validators.ANY_OF'>, 'Auth': <class 'gluon.tools.Auth'>, 'B': <class 'gluon.html.B'>, 'BEAUTIFY': <class 'gluon.html.BEAUTIFY'>, 'BODY': <class 'gluon.html.BODY'>, 'BR': <class 'gluon.html.BR'>, 'BUTTON': <class 'gluon.html.BUTTON'>, 'CAT': <class 'gluon.html.CAT'>, 'CENTER': <class 'gluon.html.CENTER'>, ...}"
p67
sS'ccode'
p68
S'<code object <module> at 0xaee742f0, file "/ug/u.../applications/proj/views/user/grid.html", line 1>'
p69
ssS'lnum'
p70
I220
sS'lines'
p71
(dp72
I224
S'        # do not encapsulate (obfuscate) the original RestrictedError'
p73
sI215
S'    try:'
p74
sI216
S'        if isinstance(code, types.CodeType):'
p75
sI217
S'            ccode = code'
p76
sI218
S'        else:'
p77
sI219
S'            ccode = compile2(code, layer)'
p78
sI220
S'        exec ccode in environment'
p79
sI221
S'    except HTTP:'
p80
sI222
S'        raise'
p81
sI223
S'    except RestrictedError:'
p82
ssS'call'
p83
S'(code=r"response.write(\'<html>\\n<head>\\n<style>\\n\\nul.ri...div>\\n</div> \\n</body>\\n</html>\\n\', escape=False)", environment={\'A\': <class \'gluon.html.A\'>, \'ANY_OF\': <class \'gluon.validators.ANY_OF\'>, \'Auth\': <class \'gluon.tools.Auth\'>, \'B\': <class \'gluon.html.B\'>, \'BEAUTIFY\': <class \'gluon.html.BEAUTIFY\'>, \'BODY\': <class \'gluon.html.BODY\'>, \'BR\': <class \'gluon.html.BR\'>, \'BUTTON\': <class \'gluon.html.BUTTON\'>, \'CAT\': <class \'gluon.html.CAT\'>, \'CENTER\': <class \'gluon.html.CENTER\'>, ...}, layer=\'/ug/ug2k13/csd/rohith.reddy/web2py/applications/proj/views/user/grid.html\')'
p84
sS'func'
p85
S'restricted'
p86
sa(dp87
g62
S'/ug/ug2k13/csd/rohith.reddy/web2py/applications/proj/views/user/grid.html'
p88
sg64
(dp89
S'inline'
p90
S'undefined'
p91
sS'display'
p92
g91
sS'block'
p93
g91
ssg70
I12
sg71
(dp94
I3
S"response.write(' !!!!!!</h3>\\n    <h3>Your Journal has ', escape=False)"
p95
sI4
S"response.write(num['no'])"
p96
sI5
S'response.write(\' photo/s</h3>\\n<div data-role="main" class="ui-content">\\n<!--p>\\nadd content!! im bored!!\\n\\n</p-->\\n<!--html>\\n<head>\\n<link rel="stylesheet" type="text/css" href="gridtest.css">\\n</head-->\\n<body>\\n<ul class="rig">\\n\', escape=False)'
p97
sI6
S'for i in lst:'
p98
sI7
S'    response.write(\'\\n   <!-- <li><img src="\', escape=False)'
p99
sI8
S"    response.write(URL('download',args=lst[0].image))"
p100
sI9
S'    response.write(\'" alt="Empty" width="200"  height="400" onclick="window.location=\\\'\', escape=False)'
p101
sI10
S"    URL(c='user',f='comments', args=[lst[i].id])"
p102
sI11
S'    response.write(\'\\\'"/></li>-->\\n   \', escape=False)'
p103
sI12
S"    response.write(LI(A(IMG(_src=URL('download',args=i.image),_alt='Empty'), _href=URL(c='user',f='comments', args=i.id))))"
p104
sI13
S"    response.write('\\n    <!-- ', escape=False)"
p105
sI14
S"    response.write(LI(A(IMG(_src=URL('download',args=lst[i].image),_alt='Empty'),)))"
p106
sI15
S"    response.write('-->\\n    <!--<li>', escape=False)"
p107
sI16
S"    response.write(IMG(_src=URL('download',args=lst[i].image),_alt='Empty'))"
p108
sI17
S"    response.write('</li>-->\\n    ', escape=False)"
p109
sI18
S'    pass'
p110
sI19
S'response.write(\'\\n</ul>\\n</div>\\n<div data-role="footer">\\n    <h1>\\xc2\\xa9 All material on this site is copyright fotolog and its contributors.</h1>\\n  </div>\\n</div> \\n</body>\\n</html>\\n\', escape=False)'
p111
ssg83
S'()'
p112
sg85
S'<module>'
p113
sasS'pyver'
p114
S'Python 2.7: /usr/bin/python (prefix: /usr)'
p115
sS'session'
p116
g57
(S's\xbb\x01\x00\x00<div><table><tr><td style="font-weight:bold;vertical-align:top;">flash</td><td style="vertical-align:top;">:</td><td><div>None</div></td></tr><tr><td style="font-weight:bold;vertical-align:top;">last_orderby</td><td style="vertical-align:top;">:</td><td><div>None</div></td></tr><tr><td style="font-weight:bold;vertical-align:top;">last_query</td><td style="vertical-align:top;">:</td><td><div>dbhome.pics.id&gt;0</div></td></tr></table></div>'
tRp117
sS'etype'
p118
S"<type 'exceptions.AttributeError'>"
p119
sS'date'
p120
S'Tue Mar 25 23:37:20 2014'
p121
sS'response'
p122
g57
(S's:1\x00\x00<div><table><tr><td style="font-weight:bold;vertical-align:top;">body</td><td style="vertical-align:top;">:</td><td><div>&lt;cStringIO.StringO object at 0xaee188e0&gt;</div></td></tr><tr><td style="font-weight:bold;vertical-align:top;">cookies</td><td style="vertical-align:top;">:</td><td><div><table><tr><td style="font-weight:bold;vertical-align:top;">session_id_proj</td><td style="vertical-align:top;">:</td><td><div>127.0.0.1-d6d99fb4-edbf-45a7-9ebd-21930c4a4af0<table><tr><td style="font-weight:bold;vertical-align:top;">comment</td><td style="vertical-align:top;">:</td><td><div></div></td></tr><tr><td style="font-weight:bold;vertical-align:top;">domain</td><td style="vertical-align:top;">:</td><td><div></div></td></tr><tr><td style="font-weight:bold;vertical-align:top;">expires</td><td style="vertical-align:top;">:</td><td><div></div></td></tr><tr><td style="font-weight:bold;vertical-align:top;">httponly</td><td style="vertical-align:top;">:</td><td><div></div></td></tr><tr><td style="font-weight:bold;vertical-align:top;">max-age</td><td style="vertical-align:top;">:</td><td><div></div></td></tr><tr><td style="font-weight:bold;vertical-align:top;">path</td><td style="vertical-align:top;">:</td><td><div>/</div></td></tr><tr><td style="font-weight:bold;vertical-align:top;">secure</td><td style="vertical-align:top;">:</td><td><div></div></td></tr><tr><td style="font-weight:bold;vertical-align:top;">version</td><td style="vertical-align:top;">:</td><td><div></div></td></tr></table></div></td></tr></table></div></td></tr><tr><td style="font-weight:bold;vertical-align:top;">delimiters</td><td style="vertical-align:top;">:</td><td><div><table><tr><td><div>{{</div></td></tr><tr><td><div>}}</div></td></tr></table></div></td></tr><tr><td style="font-weight:bold;vertical-align:top;">files</td><td style="vertical-align:top;">:</td><td><div><table></table></div></td></tr><tr><td style="font-weight:bold;vertical-align:top;">flash</td><td style="vertical-align:top;">:</td><td><div></div></td></tr><tr><td style="font-weight:bold;vertical-align:top;">generic_patterns</td><td style="vertical-align:top;">:</td><td><div><table><tr><td><div>*</div></td></tr></table></div></td></tr><tr><td style="font-weight:bold;vertical-align:top;">google_analytics_id</td><td style="vertical-align:top;">:</td><td><div>None</div></td></tr><tr><td style="font-weight:bold;vertical-align:top;">headers</td><td style="vertical-align:top;">:</td><td><div><table><tr><td style="font-weight:bold;vertical-align:top;">X-Powered-By</td><td style="vertical-align:top;">:</td><td><div>web2py</div></td></tr></table></div></td></tr><tr><td style="font-weight:bold;vertical-align:top;">logo</td><td style="vertical-align:top;">:</td><td><div><a class="brand" href="http://www.web2py.com/"><b>web<span>2</span>py</b>&trade;&nbsp;</a></div></td></tr><tr><td style="font-weight:bold;vertical-align:top;">menu</td><td style="vertical-align:top;">:</td><td><div><table><tr><td><div><table><tr><td><div>Home</div></td></tr><tr><td><div>False</div></td></tr><tr><td><div>/proj/default/index</div></td></tr><tr><td><div><table></table></div></td></tr></table></div></td></tr><tr><td><div><table><tr><td><div><span class="highlighted">web2py</span></div></td></tr><tr><td><div>False</div></td></tr><tr><td><div>http://web2py.com</div></td></tr><tr><td><div><table><tr><td><div><table><tr><td><div>My Sites</div></td></tr><tr><td><div>False</div></td></tr><tr><td><div>/admin/default/site</div></td></tr></table></div></td></tr><tr><td><div><table><tr><td><div>This App</div></td></tr><tr><td><div>False</div></td></tr><tr><td><div>/admin/default/design/proj</div></td></tr><tr><td><div>[(&lt;lazyT &#x27;Controller&#x27;&gt;, False, &#x27;/admin/default/edit/proj/controllers/user.py&#x27;), (&lt;lazyT &#x27;View&#x27;&gt;, False, &#x27;/admin/default/edit/proj/views/user/grid.html&#x27;), (&lt;lazyT &#x27;Layout&#x27;&gt;, False, &#x27;/admin/default/edit/proj/views/layout.html&#x27;), (&lt;lazyT &#x27;Stylesheet&#x27;&gt;, False, &#x27;/admin/default/edit/proj/static/css/web2py.css&#x27;), (&lt;lazyT &#x27;DB Model&#x27;&gt;, False, &#x27;/admin/default/edit/proj/models/db.py&#x27;), (&lt;lazyT &#x27;Menu Model&#x27;&gt;, False, &#x27;/admin/default/edit/proj/models/menu.py&#x27;), (&lt;lazyT &#x27;Database&#x27;&gt;, False, &#x27;/proj/appadmin/index&#x27;), (&lt;lazyT &#x27;Errors&#x27;&gt;, False, &#x27;/admin/default/errors/proj&#x27;), (&lt;lazyT &#x27;About&#x27;&gt;, False, &#x27;/admin/default/about/proj&#x27;)]</div></td></tr></table></div></td></tr><tr><td><div><table><tr><td><div>web2py.com</div></td></tr><tr><td><div>False</div></td></tr><tr><td><div>http://www.web2py.com</div></td></tr><tr><td><div>[(&lt;lazyT &#x27;Download&#x27;&gt;, False, &#x27;http://www.web2py.com/examples/default/download&#x27;), (&lt;lazyT &#x27;Support&#x27;&gt;, False, &#x27;http://www.web2py.com/examples/default/support&#x27;), (&lt;lazyT &#x27;Demo&#x27;&gt;, False, &#x27;http://web2py.com/demo_admin&#x27;), (&lt;lazyT &#x27;Quick Examples&#x27;&gt;, False, &#x27;http://web2py.com/examples/default/examples&#x27;), (&lt;lazyT &#x27;FAQ&#x27;&gt;, False, &#x27;http://web2py.com/AlterEgo&#x27;), (&lt;lazyT &#x27;Videos&#x27;&gt;, False, &#x27;http://www.web2py.com/examples/default/videos/&#x27;), (&lt;lazyT &#x27;Free Applications&#x27;&gt;, False, &#x27;http://web2py.com/appliances&#x27;), (&lt;lazyT &#x27;Plugins&#x27;&gt;, False, &#x27;http://web2py.com/plugins&#x27;), (&lt;lazyT &#x27;Layouts&#x27;&gt;, False, &#x27;http://web2py.com/layouts&#x27;), (&lt;lazyT &#x27;Recipes&#x27;&gt;, False, &#x27;http://web2pyslices.com/&#x27;), (&lt;lazyT &#x27;Semantic&#x27;&gt;, False, &#x27;http://web2py.com/semantic&#x27;)]</div></td></tr></table></div></td></tr><tr><td><div><table><tr><td><div>Documentation</div></td></tr><tr><td><div>False</div></td></tr><tr><td><div>http://www.web2py.com/book</div></td></tr><tr><td><div>[(&lt;lazyT &#x27;Preface&#x27;&gt;, False, &#x27;http://www.web2py.com/book/default/chapter/00&#x27;), (&lt;lazyT &#x27;Introduction&#x27;&gt;, False, &#x27;http://www.web2py.com/book/default/chapter/01&#x27;), (&lt;lazyT &#x27;Python&#x27;&gt;, False, &#x27;http://www.web2py.com/book/default/chapter/02&#x27;), (&lt;lazyT &#x27;Overview&#x27;&gt;, False, &#x27;http://www.web2py.com/book/default/chapter/03&#x27;), (&lt;lazyT &#x27;The Core&#x27;&gt;, False, &#x27;http://www.web2py.com/book/default/chapter/04&#x27;), (&lt;lazyT &#x27;The Views&#x27;&gt;, False, &#x27;http://www.web2py.com/book/default/chapter/05&#x27;), (&lt;lazyT &#x27;Database&#x27;&gt;, False, &#x27;http://www.web2py.com/book/default/chapter/06&#x27;), (&lt;lazyT &#x27;Forms and Validators&#x27;&gt;, False, &#x27;http://www.web2py.com/book/default/chapter/07&#x27;), (&lt;lazyT &#x27;Email and SMS&#x27;&gt;, False, &#x27;http://www.web2py.com/book/default/chapter/08&#x27;), (&lt;lazyT &#x27;Access Control&#x27;&gt;, False, &#x27;http://www.web2py.com/book/default/chapter/09&#x27;), (&lt;lazyT &#x27;Services&#x27;&gt;, False, &#x27;http://www.web2py.com/book/default/chapter/10&#x27;), (&lt;lazyT &#x27;Ajax Recipes&#x27;&gt;, False, &#x27;http://www.web2py.com/book/default/chapter/11&#x27;), (&lt;lazyT &#x27;Components and Plugins&#x27;&gt;, False, &#x27;http://www.web2py.com/book/default/chapter/12&#x27;), (&lt;lazyT &#x27;Deployment Recipes&#x27;&gt;, False, &#x27;http://www.web2py.com/book/default/chapter/13&#x27;), (&lt;lazyT &#x27;Other Recipes&#x27;&gt;, False, &#x27;http://www.web2py.com/book/default/chapter/14&#x27;), (&lt;lazyT &#x27;Buy this book&#x27;&gt;, False, &#x27;http://stores.lulu.com/web2py&#x27;)]</div></td></tr></table></div></td></tr><tr><td><div><table><tr><td><div>Community</div></td></tr><tr><td><div>False</div></td></tr><tr><td><div>None</div></td></tr><tr><td><div>[(&lt;lazyT &#x27;Groups&#x27;&gt;, False, &#x27;http://www.web2py.com/examples/default/usergroups&#x27;), (&lt;lazyT &#x27;Twitter&#x27;&gt;, False, &#x27;http://twitter.com/web2py&#x27;), (&lt;lazyT &#x27;Live Chat&#x27;&gt;, False, &#x27;http://webchat.freenode.net/?channels=web2py&#x27;)]</div></td></tr></table></div></td></tr><tr><td><div><table><tr><td><div>Plugins</div></td></tr><tr><td><div>False</div></td></tr><tr><td><div>None</div></td></tr><tr><td><div>[(&#x27;plugin_wiki&#x27;, False, &#x27;http://web2py.com/examples/default/download&#x27;), (&lt;lazyT &#x27;Other Plugins&#x27;&gt;, False, &#x27;http://web2py.com/plugins&#x27;), (&lt;lazyT &#x27;Layout Plugins&#x27;&gt;, False, &#x27;http://web2py.com/layouts&#x27;)]</div></td></tr></table></div></td></tr></table></div></td></tr></table></div></td></tr></table></div></td></tr><tr><td style="font-weight:bold;vertical-align:top;">meta</td><td style="vertical-align:top;">:</td><td><div><table><tr><td style="font-weight:bold;vertical-align:top;">author</td><td style="vertical-align:top;">:</td><td><div>Your Name &lt;you@example.com&gt;</div></td></tr><tr><td style="font-weight:bold;vertical-align:top;">generator</td><td style="vertical-align:top;">:</td><td><div>Web2py Web Framework</div></td></tr><tr><td style="font-weight:bold;vertical-align:top;">keywords</td><td style="vertical-align:top;">:</td><td><div>web2py, python, framework</div></td></tr></table></div></td></tr><tr><td style="font-weight:bold;vertical-align:top;">models_to_run</td><td style="vertical-align:top;">:</td><td><div><table><tr><td><div>^\\w+\\.py$</div></td></tr><tr><td><div>^user/\\w+\\.py$</div></td></tr><tr><td><div>^user/grid/\\w+\\.py$</div></td></tr></table></div></td></tr><tr><td style="font-weight:bold;vertical-align:top;">postprocessing</td><td style="vertical-align:top;">:</td><td><div><table></table></div></td></tr><tr><td style="font-weight:bold;vertical-align:top;">session_client</td><td style="vertical-align:top;">:</td><td><div>127.0.0.1</div></td></tr><tr><td style="font-weight:bold;vertical-align:top;">session_cookie_compression_level</td><td style="vertical-align:top;">:</td><td><div>None</div></td></tr><tr><td style="font-weight:bold;vertical-align:top;">session_cookie_expires</td><td style="vertical-align:top;">:</td><td><div>None</div></td></tr><tr><td style="font-weight:bold;vertical-align:top;">session_cookie_key</td><td style="vertical-align:top;">:</td><td><div>None</div></td></tr><tr><td style="font-weight:bold;vertical-align:top;">session_data_name</td><td style="vertical-align:top;">:</td><td><div>session_data_proj</div></td></tr><tr><td style="font-weight:bold;vertical-align:top;">session_file</td><td style="vertical-align:top;">:</td><td><div>&lt;open file &#x27;/ug/ug2k13/csd/rohith.reddy/web2py/applications/proj/sessions/127.0.0.1-d6d99fb4-edbf-45a7-9ebd-21930c4a4af0&#x27;, mode &#x27;rb+&#x27; at 0xaf044650&gt;</div></td></tr><tr><td style="font-weight:bold;vertical-align:top;">session_filename</td><td style="vertical-align:top;">:</td><td><div>/ug/ug2k13/csd/rohith.reddy/web2py/applications/proj/sessions/127.0.0.1-d6d99fb4-edbf-45a7-9ebd-21930c4a4af0</div></td></tr><tr><td style="font-weight:bold;vertical-align:top;">session_hash</td><td style="vertical-align:top;">:</td><td><div>71ad8ec39fd016ac590e77caad5b9948</div></td></tr><tr><td style="font-weight:bold;vertical-align:top;">session_id</td><td style="vertical-align:top;">:</td><td><div>127.0.0.1-d6d99fb4-edbf-45a7-9ebd-21930c4a4af0</div></td></tr><tr><td style="font-weight:bold;vertical-align:top;">session_id_name</td><td style="vertical-align:top;">:</td><td><div>session_id_proj</div></td></tr><tr><td style="font-weight:bold;vertical-align:top;">session_locked</td><td style="vertical-align:top;">:</td><td><div>True</div></td></tr><tr><td style="font-weight:bold;vertical-align:top;">session_masterapp</td><td style="vertical-align:top;">:</td><td><div>proj</div></td></tr><tr><td style="font-weight:bold;vertical-align:top;">session_new</td><td style="vertical-align:top;">:</td><td><div>False</div></td></tr><tr><td style="font-weight:bold;vertical-align:top;">session_storage_type</td><td style="vertical-align:top;">:</td><td><div>file</div></td></tr><tr><td style="font-weight:bold;vertical-align:top;">status</td><td style="vertical-align:top;">:</td><td><div>200</div></td></tr><tr><td style="font-weight:bold;vertical-align:top;">subtitle</td><td style="vertical-align:top;">:</td><td><div></div></td></tr><tr><td style="font-weight:bold;vertical-align:top;">title</td><td style="vertical-align:top;">:</td><td><div>Proj</div></td></tr><tr><td style="font-weight:bold;vertical-align:top;">view</td><td style="vertical-align:top;">:</td><td><div>user/grid.html</div></td></tr></table></div>'
tRp123
sS'locals'
p124
(dp125
S'Service'
p126
S"<class 'gluon.tools.Service'>"
p127
sS'OBJECT'
p128
S"<class 'gluon.html.OBJECT'>"
p129
sS'SQLDB'
p130
S"<class 'gluon.dal.DAL'>"
p131
sS'lst'
p132
S"{0: <Row {'image': 'pics.image.b70bcb3e56520196.312e6a7067.jpg', 'id': 2L, 'name': 'abhilash'}>, 1: <Row {'image': 'pics.image.84c185c3e5c7b99d.696d...3312e6a7067.jpg', 'id': 16L, 'name': 'abhilash'}>}"
p133
sg116
S"<Storage {'flash': None, 'last_orderby': None, '...8e331', '6991bc58-8da0-4e11-94f9-d6234f15d6d8']}>"
p134
sS'LINK'
p135
S"<class 'gluon.html.LINK'>"
p136
sS'BR'
p137
S"<class 'gluon.html.BR'>"
p138
sS'local_import'
p139
S'<function <lambda>>'
p140
sS'OPTGROUP'
p141
S"<class 'gluon.html.OPTGROUP'>"
p142
sS'__package__'
p143
S'None'
p144
sS'PRE'
p145
S"<class 'gluon.html.PRE'>"
p146
sS'IS_INT_IN_RANGE'
p147
S"<class 'gluon.validators.IS_INT_IN_RANGE'>"
p148
sS'IS_LOWER'
p149
S"<class 'gluon.validators.IS_LOWER'>"
p150
sS'IS_STRONG'
p151
S"<class 'gluon.validators.IS_STRONG'>"
p152
sS'cache'
p153
S'<gluon.cache.Cache object>'
p154
sS'IS_IN_DB'
p155
S"<class 'gluon.validators.IS_IN_DB'>"
p156
sS'TAG'
p157
S'<gluon.html.__TAG__ object>'
p158
sS'SQLField'
p159
S"<class 'gluon.dal.Field'>"
p160
sS'mail'
p161
S'<gluon.tools.Mail object>'
p162
sS'BODY'
p163
S"<class 'gluon.html.BODY'>"
p164
sS'IS_DATE_IN_RANGE'
p165
S"<class 'gluon.validators.IS_DATE_IN_RANGE'>"
p166
sS'IFRAME'
p167
S"<class 'gluon.html.IFRAME'>"
p168
sS'URL'
p169
S'<function URL>'
p170
sS'__file__'
p171
S"'/ug/ug2k13/csd/rohith.reddy/web2py/applications/proj/views/user/grid.html'"
p172
sS'db'
p173
S'<DAL uri="sqlite://storage.sqlite">'
p174
sS'auth'
p175
S'<gluon.tools.Auth object>'
p176
sS'P'
S"<class 'gluon.html.P'>"
p177
sS'TFOOT'
p178
S"<class 'gluon.html.TFOOT'>"
p179
sS'XHTML'
p180
S"<class 'gluon.html.XHTML'>"
p181
sS'ON'
p182
S'True'
p183
sS'OL'
p184
S"<class 'gluon.html.OL'>"
p185
sS'TEXTAREA'
p186
S"<class 'gluon.html.TEXTAREA'>"
p187
sS'MENU'
p188
S"<class 'gluon.html.MENU'>"
p189
sS'IS_IMAGE'
p190
S"<class 'gluon.validators.IS_IMAGE'>"
p191
sS'EM'
p192
S"<class 'gluon.html.EM'>"
p193
sS'CODE'
p194
S"<class 'gluon.html.CODE'>"
p195
sS'HTTP'
p196
S"<class 'gluon.http.HTTP'>"
p197
sS'HR'
p198
S"<class 'gluon.html.HR'>"
p199
sS'IS_DATETIME'
p200
S"<class 'gluon.validators.IS_DATETIME'>"
p201
sS'STYLE'
p202
S"<class 'gluon.html.STYLE'>"
p203
sS'LABEL'
p204
S"<class 'gluon.html.LABEL'>"
p205
sS'CLEANUP'
p206
S"<class 'gluon.validators.CLEANUP'>"
p207
sS'plugins'
p208
S'<gluon.tools.PluginManager object>'
p209
sS'SELECT'
p210
S"<class 'gluon.html.SELECT'>"
p211
sS'use_janrain'
p212
S'<function use_janrain>'
p213
sS'CENTER'
p214
S"<class 'gluon.html.CENTER'>"
p215
sS'prettydate'
p216
S'<function prettydate>'
p217
sS'Crud'
p218
S"<class 'gluon.tools.Crud'>"
p219
sS'Auth'
p220
S"<class 'gluon.tools.Auth'>"
p221
sS'DEVELOPMENT_MENU'
p222
g183
sS'__builtins__'
p223
S"{'ArithmeticError': <type 'exceptions.ArithmeticError'>, 'AssertionError': <type 'exceptions.AssertionError'>, 'AttributeError': <type 'exceptions.AttributeError'>, 'BaseException': <type 'exceptions.BaseException'>, 'BufferError': <type 'exceptions.BufferError'>, 'BytesWarning': <type 'exceptions.BytesWarning'>, 'DeprecationWarning': <type 'exceptions.DeprecationWarning'>, 'EOFError': <type 'exceptions.EOFError'>, 'Ellipsis': Ellipsis, 'EnvironmentError': <type 'exceptions.EnvironmentError'>, ...}"
p224
sS'HTML'
p225
S"<class 'gluon.html.HTML'>"
p226
sS'SQLFORM'
p227
S"<class 'gluon.sqlhtml.SQLFORM'>"
p228
sS'LOAD'
p229
S'<function LOAD>'
p230
sS'redirect'
p231
S'<function redirect>'
p232
sS'FIELDSET'
p233
S"<class 'gluon.html.FIELDSET'>"
p234
sS'IS_EQUAL_TO'
p235
S"<class 'gluon.validators.IS_EQUAL_TO'>"
p236
sS'embed64'
p237
S'<function embed64>'
p238
sS'IS_LIST_OF'
p239
S"<class 'gluon.validators.IS_LIST_OF'>"
p240
sS'INPUT'
p241
S"<class 'gluon.html.INPUT'>"
p242
sS'EMBED'
p243
S"<class 'gluon.html.EMBED'>"
p244
sS'_'
S'<function _>'
p245
sS'H2'
p246
S"<class 'gluon.html.H2'>"
p247
sS'H3'
p248
S"<class 'gluon.html.H3'>"
p249
sS'BUTTON'
p250
S"<class 'gluon.html.BUTTON'>"
p251
sS'H1'
p252
S"<class 'gluon.html.H1'>"
p253
sS'H6'
p254
S"<class 'gluon.html.H6'>"
p255
sS'H4'
p256
S"<class 'gluon.html.H4'>"
p257
sS'H5'
p258
S"<class 'gluon.html.H5'>"
p259
sS'UL'
p260
S"<class 'gluon.html.UL'>"
p261
sS'IS_UPPER'
p262
S"<class 'gluon.validators.IS_UPPER'>"
p263
sS'xmlescape'
p264
S'<function xmlescape>'
p265
sS'IS_TIME'
p266
S"<class 'gluon.validators.IS_TIME'>"
p267
sS'OPTION'
p268
S"<class 'gluon.html.OPTION'>"
p269
sS'TITLE'
p270
S"<class 'gluon.html.TITLE'>"
p271
sS'CRYPT'
p272
S"<class 'gluon.validators.CRYPT'>"
p273
sS'IS_EMPTY_OR'
p274
S"<class 'gluon.validators.IS_EMPTY_OR'>"
p275
sS'MARKMIN'
p276
S"<class 'gluon.html.MARKMIN'>"
p277
sS'__name__'
p278
S"'__restricted__'"
p279
sS'STRONG'
p280
S"<class 'gluon.html.STRONG'>"
p281
sS'COL'
p282
S"<class 'gluon.html.COL'>"
p283
sS'dbhome'
p284
S'<DAL uri="sqlite://storage.sqlite">'
p285
sS'service'
p286
S'<gluon.tools.Service object>'
p287
sS'SCRIPT'
p288
S"<class 'gluon.html.SCRIPT'>"
p289
sS'TABLE'
p290
S"<class 'gluon.html.TABLE'>"
p291
sS'IS_IPV4'
p292
S"<class 'gluon.validators.IS_IPV4'>"
p293
sS'IS_LENGTH'
p294
S"<class 'gluon.validators.IS_LENGTH'>"
p295
sS'IS_IPV6'
p296
S"<class 'gluon.validators.IS_IPV6'>"
p297
sS'XML'
p298
S"<class 'gluon.html.XML'>"
p299
sS'B'
S"<class 'gluon.html.B'>"
p300
sS'IMG'
p301
S"<class 'gluon.html.IMG'>"
p302
sS'SQLTABLE'
p303
S"<class 'gluon.sqlhtml.SQLTABLE'>"
p304
sS'IS_MATCH'
p305
S"<class 'gluon.validators.IS_MATCH'>"
p306
sS'IS_ALPHANUMERIC'
p307
S"<class 'gluon.validators.IS_ALPHANUMERIC'>"
p308
sS'SPAN'
p309
S"<class 'gluon.html.SPAN'>"
p310
sS'IS_JSON'
p311
S"<class 'gluon.validators.IS_JSON'>"
p312
sS'IS_IPADDRESS'
p313
S"<class 'gluon.validators.IS_IPADDRESS'>"
p314
sS'IS_SLUG'
p315
S"<class 'gluon.validators.IS_SLUG'>"
p316
sS'num'
p317
S"{'no': 2}"
p318
sS'META'
p319
S"<class 'gluon.html.META'>"
p320
sS'IS_DATE'
p321
S"<class 'gluon.validators.IS_DATE'>"
p322
sS'IS_EMAIL'
p323
S"<class 'gluon.validators.IS_EMAIL'>"
p324
sS'IS_NOT_EMPTY'
p325
S"<class 'gluon.validators.IS_NOT_EMPTY'>"
p326
sS'IS_FLOAT_IN_RANGE'
p327
S"<class 'gluon.validators.IS_FLOAT_IN_RANGE'>"
p328
sS'BEAUTIFY'
p329
S"<class 'gluon.html.BEAUTIFY'>"
p330
sS'TBODY'
p331
S"<class 'gluon.html.TBODY'>"
p332
sS'CAT'
p333
S"<class 'gluon.html.CAT'>"
p334
sS'Field'
p335
S"<class 'gluon.dal.Field'>"
p336
sS'IS_LIST_OF_EMAILS'
p337
S"<class 'gluon.validators.IS_LIST_OF_EMAILS'>"
p338
sS'DIV'
p339
S"<class 'gluon.html.DIV'>"
p340
sS'LEGEND'
p341
S"<class 'gluon.html.LEGEND'>"
p342
sS'COLGROUP'
p343
S"<class 'gluon.html.COLGROUP'>"
p344
sS'DAL'
p345
S"<class 'gluon.dal.DAL'>"
p346
sS'TT'
p347
S"<class 'gluon.html.TT'>"
p348
sS'TR'
p349
S"<class 'gluon.html.TR'>"
p350
sS'LI'
p351
S"<class 'gluon.html.LI'>"
p352
sS'TH'
p353
S"<class 'gluon.html.TH'>"
p354
sS'TD'
p355
S"<class 'gluon.html.TD'>"
p356
sS'PluginManager'
p357
S"<class 'gluon.tools.PluginManager'>"
p358
sS'IS_URL'
p359
S"<class 'gluon.validators.IS_URL'>"
p360
sS'A'
S"<class 'gluon.html.A'>"
p361
sS'HEAD'
p362
S"<class 'gluon.html.HEAD'>"
p363
sS'IS_DATETIME_IN_RANGE'
p364
S"<class 'gluon.validators.IS_DATETIME_IN_RANGE'>"
p365
sS'FORM'
p366
S"<class 'gluon.html.FORM'>"
p367
sS'I'
S"<class 'gluon.html.I'>"
p368
sS'crud'
p369
S'<gluon.tools.Crud object>'
p370
sS'IS_NOT_IN_DB'
p371
S"<class 'gluon.validators.IS_NOT_IN_DB'>"
p372
sg122
S"<Storage {'body': <cStringIO.StringO object at 0...ambda> at 0xae9919cc>, 'view': 'user/grid.html'}>"
p373
sS'THEAD'
p374
S"<class 'gluon.html.THEAD'>"
p375
sS'ANY_OF'
p376
S"<class 'gluon.validators.ANY_OF'>"
p377
sS'IS_NULL_OR'
p378
S"<class 'gluon.validators.IS_EMPTY_OR'>"
p379
sS'i'
S'0'
sg56
S"<Storage {'_vars': None, 'function': 'grid', 'co...k13/csd/rohith.reddy/web2py/applications/proj/'}>"
p380
sS'IS_EXPR'
p381
S"<class 'gluon.validators.IS_EXPR'>"
p382
sS'T'
S'<gluon.languages.translator object>'
p383
sS'IS_IN_SET'
p384
S"<class 'gluon.validators.IS_IN_SET'>"
p385
sS'IS_UPLOAD_FILENAME'
p386
S"<class 'gluon.validators.IS_UPLOAD_FILENAME'>"
p387
sS'IS_DECIMAL_IN_RANGE'
p388
S"<class 'gluon.validators.IS_DECIMAL_IN_RANGE'>"
p389
sssS'traceback'
p390
S'Traceback (most recent call last):\n  File "/ug/ug2k13/csd/rohith.reddy/web2py/gluon/restricted.py", line 220, in restricted\n    exec ccode in environment\n  File "/ug/ug2k13/csd/rohith.reddy/web2py/applications/proj/views/user/grid.html", line 12, in <module>\n    display: inline-block;\nAttributeError: \'int\' object has no attribute \'image\'\n'
p391
s.